Archive member included to satisfy reference by file (symbol)

/home/hreis/gcc-arm-none-eabi-7-2017-q4-major/bin/../lib/gcc/arm-none-eabi/7.2.1/thumb/v7-m/libgcc.a(_arm_muldivdf3.o)
                              display.o (__aeabi_dmul)
/home/hreis/gcc-arm-none-eabi-7-2017-q4-major/bin/../lib/gcc/arm-none-eabi/7.2.1/thumb/v7-m/libgcc.a(_arm_fixdfsi.o)
                              display.o (__aeabi_d2iz)
/home/hreis/gcc-arm-none-eabi-7-2017-q4-major/bin/../lib/gcc/arm-none-eabi/7.2.1/../../../../arm-none-eabi/lib/thumb/v7-m/libc.a(lib_a-exit.o)
                              /home/hreis/gcc-arm-none-eabi-7-2017-q4-major/bin/../lib/gcc/arm-none-eabi/7.2.1/../../../../arm-none-eabi/lib/thumb/v7-m/crt0.o (exit)
/home/hreis/gcc-arm-none-eabi-7-2017-q4-major/bin/../lib/gcc/arm-none-eabi/7.2.1/../../../../arm-none-eabi/lib/thumb/v7-m/libc.a(lib_a-impure.o)
                              /home/hreis/gcc-arm-none-eabi-7-2017-q4-major/bin/../lib/gcc/arm-none-eabi/7.2.1/../../../../arm-none-eabi/lib/thumb/v7-m/libc.a(lib_a-exit.o) (_global_impure_ptr)
/home/hreis/gcc-arm-none-eabi-7-2017-q4-major/bin/../lib/gcc/arm-none-eabi/7.2.1/../../../../arm-none-eabi/lib/thumb/v7-m/libc.a(lib_a-init.o)
                              /home/hreis/gcc-arm-none-eabi-7-2017-q4-major/bin/../lib/gcc/arm-none-eabi/7.2.1/../../../../arm-none-eabi/lib/thumb/v7-m/crt0.o (__libc_init_array)
/home/hreis/gcc-arm-none-eabi-7-2017-q4-major/bin/../lib/gcc/arm-none-eabi/7.2.1/../../../../arm-none-eabi/lib/thumb/v7-m/libc.a(lib_a-memset.o)
                              /home/hreis/gcc-arm-none-eabi-7-2017-q4-major/bin/../lib/gcc/arm-none-eabi/7.2.1/../../../../arm-none-eabi/lib/thumb/v7-m/crt0.o (memset)
/home/hreis/gcc-arm-none-eabi-7-2017-q4-major/bin/../lib/gcc/arm-none-eabi/7.2.1/../../../../arm-none-eabi/lib/thumb/v7-m/libc.a(lib_a-__call_atexit.o)
                              /home/hreis/gcc-arm-none-eabi-7-2017-q4-major/bin/../lib/gcc/arm-none-eabi/7.2.1/../../../../arm-none-eabi/lib/thumb/v7-m/libc.a(lib_a-exit.o) (__call_exitprocs)
/home/hreis/gcc-arm-none-eabi-7-2017-q4-major/bin/../lib/gcc/arm-none-eabi/7.2.1/../../../../arm-none-eabi/lib/thumb/v7-m/libc.a(lib_a-atexit.o)
                              /home/hreis/gcc-arm-none-eabi-7-2017-q4-major/bin/../lib/gcc/arm-none-eabi/7.2.1/../../../../arm-none-eabi/lib/thumb/v7-m/libc.a(lib_a-__call_atexit.o) (atexit)
/home/hreis/gcc-arm-none-eabi-7-2017-q4-major/bin/../lib/gcc/arm-none-eabi/7.2.1/../../../../arm-none-eabi/lib/thumb/v7-m/libc.a(lib_a-fini.o)
                              /home/hreis/gcc-arm-none-eabi-7-2017-q4-major/bin/../lib/gcc/arm-none-eabi/7.2.1/../../../../arm-none-eabi/lib/thumb/v7-m/libc.a(lib_a-__call_atexit.o) (__libc_fini_array)
/home/hreis/gcc-arm-none-eabi-7-2017-q4-major/bin/../lib/gcc/arm-none-eabi/7.2.1/../../../../arm-none-eabi/lib/thumb/v7-m/libc.a(lib_a-lock.o)
                              /home/hreis/gcc-arm-none-eabi-7-2017-q4-major/bin/../lib/gcc/arm-none-eabi/7.2.1/../../../../arm-none-eabi/lib/thumb/v7-m/libc.a(lib_a-__call_atexit.o) (__retarget_lock_acquire_recursive)
/home/hreis/gcc-arm-none-eabi-7-2017-q4-major/bin/../lib/gcc/arm-none-eabi/7.2.1/../../../../arm-none-eabi/lib/thumb/v7-m/libc.a(lib_a-__atexit.o)
                              /home/hreis/gcc-arm-none-eabi-7-2017-q4-major/bin/../lib/gcc/arm-none-eabi/7.2.1/../../../../arm-none-eabi/lib/thumb/v7-m/libc.a(lib_a-atexit.o) (__register_exitproc)

Allocating common symbols
Common symbol       size              file

stopped             0x1               dmgcpu.o
IOSCY               0x1               dmgcpu.o
oam                 0xa0              dmgcpu.o
IOTAC               0x1               dmgcpu.o
__lock___atexit_recursive_mutex
                    0x1               /home/hreis/gcc-arm-none-eabi-7-2017-q4-major/bin/../lib/gcc/arm-none-eabi/7.2.1/../../../../arm-none-eabi/lib/thumb/v7-m/libc.a(lib_a-lock.o)
IOLY                0x1               dmgcpu.o
__lock___arc4random_mutex
                    0x1               /home/hreis/gcc-arm-none-eabi-7-2017-q4-major/bin/../lib/gcc/arm-none-eabi/7.2.1/../../../../arm-none-eabi/lib/thumb/v7-m/libc.a(lib_a-lock.o)
CardType            0x1               mmc.o
spriteline          0x28              video.o
scanlinedata        0xa0              video.o
iram                0x2000            dmgcpu.o
SystemCoreClock     0x4               blueboard.o
LCD_WindowRotation  0x4               ili9328.o
__lock___env_recursive_mutex
                    0x1               /home/hreis/gcc-arm-none-eabi-7-2017-q4-major/bin/../lib/gcc/arm-none-eabi/7.2.1/../../../../arm-none-eabi/lib/thumb/v7-m/libc.a(lib_a-lock.o)
__lock___sinit_recursive_mutex
                    0x1               /home/hreis/gcc-arm-none-eabi-7-2017-q4-major/bin/../lib/gcc/arm-none-eabi/7.2.1/../../../../arm-none-eabi/lib/thumb/v7-m/libc.a(lib_a-lock.o)
IOTIMA              0x1               dmgcpu.o
IODMA               0x1               dmgcpu.o
__lock___malloc_recursive_mutex
                    0x1               /home/hreis/gcc-arm-none-eabi-7-2017-q4-major/bin/../lib/gcc/arm-none-eabi/7.2.1/../../../../arm-none-eabi/lib/thumb/v7-m/libc.a(lib_a-lock.o)
bgdataline          0x28              video.o
IOBGP               0x1               dmgcpu.o
IOSTAT              0x1               dmgcpu.o
IOSCX               0x1               dmgcpu.o
_KEYS               0x8               blueboard.o
IOWX                0x1               dmgcpu.o
IOIF                0x1               dmgcpu.o
IOTMA               0x1               dmgcpu.o
IOOBP1              0x1               dmgcpu.o
cycles              0x1               dmgcpu.o
IOOBP0              0x1               dmgcpu.o
hram                0x80              dmgcpu.o
IOLYC               0x1               dmgcpu.o
IME                 0x1               dmgcpu.o
frame               0x1               video.o
halted              0x1               dmgcpu.o
drive0              0x30              cartridge.o
IOLCDC              0x1               dmgcpu.o
__lock___at_quick_exit_mutex
                    0x1               /home/hreis/gcc-arm-none-eabi-7-2017-q4-major/bin/../lib/gcc/arm-none-eabi/7.2.1/../../../../arm-none-eabi/lib/thumb/v7-m/libc.a(lib_a-lock.o)
bankSelect          0x1               cartridge.o
vram                0x2000            dmgcpu.o
regs                0xc               dmgcpu.o
IODIV               0x1               dmgcpu.o
IOIE                0x1               dmgcpu.o
fps                 0x4               debug.o
__lock___dd_hash_mutex
                    0x1               /home/hreis/gcc-arm-none-eabi-7-2017-q4-major/bin/../lib/gcc/arm-none-eabi/7.2.1/../../../../arm-none-eabi/lib/thumb/v7-m/libc.a(lib_a-lock.o)
__lock___tz_mutex   0x1               /home/hreis/gcc-arm-none-eabi-7-2017-q4-major/bin/../lib/gcc/arm-none-eabi/7.2.1/../../../../arm-none-eabi/lib/thumb/v7-m/libc.a(lib_a-lock.o)
IOWY                0x1               dmgcpu.o
timer_prescaler     0x2               dmgcpu.o
IOP1                0x1               dmgcpu.o
__lock___sfp_recursive_mutex
                    0x1               /home/hreis/gcc-arm-none-eabi-7-2017-q4-major/bin/../lib/gcc/arm-none-eabi/7.2.1/../../../../arm-none-eabi/lib/thumb/v7-m/libc.a(lib_a-lock.o)

Discarded input sections

 .text          0x0000000000000000        0x0 /home/hreis/gcc-arm-none-eabi-7-2017-q4-major/bin/../lib/gcc/arm-none-eabi/7.2.1/thumb/v7-m/crti.o
 .data          0x0000000000000000        0x0 /home/hreis/gcc-arm-none-eabi-7-2017-q4-major/bin/../lib/gcc/arm-none-eabi/7.2.1/thumb/v7-m/crti.o
 .bss           0x0000000000000000        0x0 /home/hreis/gcc-arm-none-eabi-7-2017-q4-major/bin/../lib/gcc/arm-none-eabi/7.2.1/thumb/v7-m/crti.o
 .data          0x0000000000000000        0x4 /home/hreis/gcc-arm-none-eabi-7-2017-q4-major/bin/../lib/gcc/arm-none-eabi/7.2.1/thumb/v7-m/crtbegin.o
 .text          0x0000000000000000       0x74 /home/hreis/gcc-arm-none-eabi-7-2017-q4-major/bin/../lib/gcc/arm-none-eabi/7.2.1/../../../../arm-none-eabi/lib/thumb/v7-m/crt0.o
 .data          0x0000000000000000        0x0 /home/hreis/gcc-arm-none-eabi-7-2017-q4-major/bin/../lib/gcc/arm-none-eabi/7.2.1/../../../../arm-none-eabi/lib/thumb/v7-m/crt0.o
 .bss           0x0000000000000000        0x0 /home/hreis/gcc-arm-none-eabi-7-2017-q4-major/bin/../lib/gcc/arm-none-eabi/7.2.1/../../../../arm-none-eabi/lib/thumb/v7-m/crt0.o
 .ARM.extab     0x0000000000000000        0x0 /home/hreis/gcc-arm-none-eabi-7-2017-q4-major/bin/../lib/gcc/arm-none-eabi/7.2.1/../../../../arm-none-eabi/lib/thumb/v7-m/crt0.o
 .ARM.exidx     0x0000000000000000        0x8 /home/hreis/gcc-arm-none-eabi-7-2017-q4-major/bin/../lib/gcc/arm-none-eabi/7.2.1/../../../../arm-none-eabi/lib/thumb/v7-m/crt0.o
 .ARM.attributes
                0x0000000000000000       0x1b /home/hreis/gcc-arm-none-eabi-7-2017-q4-major/bin/../lib/gcc/arm-none-eabi/7.2.1/../../../../arm-none-eabi/lib/thumb/v7-m/crt0.o
 .text          0x0000000000000000        0x0 startup.o
 .data          0x0000000000000000        0x0 startup.o
 .bss           0x0000000000000000        0x0 startup.o
 .text          0x0000000000000000        0x0 blueboard.o
 .data          0x0000000000000000        0x0 blueboard.o
 .bss           0x0000000000000000        0x0 blueboard.o
 .text.BB_ClockOut
                0x0000000000000000       0x50 blueboard.o
 .text.keyDown  0x0000000000000000       0x3c blueboard.o
 .text.scanKeys
                0x0000000000000000       0x58 blueboard.o
 .text.GetTicks
                0x0000000000000000       0x14 blueboard.o
 .text          0x0000000000000000        0x0 ili9328.o
 .data          0x0000000000000000        0x0 ili9328.o
 .bss           0x0000000000000000        0x0 ili9328.o
 .text.LCD_Bkl  0x0000000000000000       0x2c ili9328.o
 .text.LCD_ReadReg
                0x0000000000000000       0xcc ili9328.o
 .text.LCD_ReadID
                0x0000000000000000       0x42 ili9328.o
 .text.LCD_Fill
                0x0000000000000000       0x78 ili9328.o
 .text.LCD_Window_L
                0x0000000000000000       0x8e ili9328.o
 .text.LCD_Pixel
                0x0000000000000000       0x2e ili9328.o
 .text.LCD_Rotation
                0x0000000000000000      0x140 ili9328.o
 .text          0x0000000000000000        0x0 spi.o
 .data          0x0000000000000000        0x0 spi.o
 .bss           0x0000000000000000        0x0 spi.o
 .text._SPI_HI_SPEED
                0x0000000000000000       0x2c spi.o
 .text          0x0000000000000000        0x0 main.o
 .data          0x0000000000000000        0x0 main.o
 .bss           0x0000000000000000        0x0 main.o
 .text          0x0000000000000000        0x0 display.o
 .data          0x0000000000000000        0x0 display.o
 .bss           0x0000000000000000        0x0 display.o
 .text.DISPLAY_SetColors
                0x0000000000000000       0x2c display.o
 .text.DISPLAY_SetFcolor
                0x0000000000000000       0x20 display.o
 .text.DISPLAY_SetBcolor
                0x0000000000000000       0x20 display.o
 .text.DISPLAY_GetFontWidth
                0x0000000000000000       0x14 display.o
 .text.DISPLAY_GetFontHeight
                0x0000000000000000       0x14 display.o
 .text.DISPLAY_GotoAbsolute
                0x0000000000000000       0x2c display.o
 .text.DISPLAY_Goto
                0x0000000000000000       0x44 display.o
 .text.xitoa    0x0000000000000000      0x138 display.o
 .text.xftoa    0x0000000000000000       0xbc display.o
 .text.DISPLAY_printf
                0x0000000000000000      0x1c8 display.o
 .text.drawCharInverted
                0x0000000000000000       0x80 display.o
 .text.drawCharTransparent
                0x0000000000000000       0x7c display.o
 .text.drawCharDouble
                0x0000000000000000      0x108 display.o
 .text.DISPLAY_Text
                0x0000000000000000       0x34 display.o
 .text.DISPLAY_GetReference
                0x0000000000000000       0x14 display.o
 .text.DISPLAY_Init
                0x0000000000000000       0x84 display.o
 .text.DISPLAY_SetFont
                0x0000000000000000       0x2c display.o
 .text.DISPLAY_SetAttribute
                0x0000000000000000       0x58 display.o
 .text.DISPLAY_Pixel
                0x0000000000000000       0x28 display.o
 .text          0x0000000000000000        0x0 fonts.o
 .data          0x0000000000000000        0x0 fonts.o
 .bss           0x0000000000000000        0x0 fonts.o
 .text          0x0000000000000000        0x0 debug.o
 .data          0x0000000000000000        0x0 debug.o
 .bss           0x0000000000000000        0x0 debug.o
 .rodata.FONTNORMAL
                0x0000000000000000      0x348 debug.o
 .bss._logline  0x0000000000000000        0x1 debug.o
 .rodata        0x0000000000000000       0x4d debug.o
 .text.updateFps
                0x0000000000000000       0x5c debug.o
 .text.printInt
                0x0000000000000000       0xca debug.o
 .text.printVal
                0x0000000000000000       0x38 debug.o
 .text.dumpRegisters
                0x0000000000000000      0x11c debug.o
 .text.dumpMemory
                0x0000000000000000       0xbc debug.o
 .text.dumpSp   0x0000000000000000       0xc0 debug.o
 .bss.fpsupdatetick.6670
                0x0000000000000000        0x4 debug.o
 COMMON         0x0000000000000000        0x4 debug.o
 .text          0x0000000000000000        0x0 io.o
 .data          0x0000000000000000        0x0 io.o
 .bss           0x0000000000000000        0x0 io.o
 .text          0x0000000000000000        0x0 alu.o
 .data          0x0000000000000000        0x0 alu.o
 .bss           0x0000000000000000        0x0 alu.o
 .text          0x0000000000000000        0x0 cartridge.o
 .data          0x0000000000000000        0x0 cartridge.o
 .bss           0x0000000000000000        0x0 cartridge.o
 .text.cartridgeRead
                0x0000000000000000       0x64 cartridge.o
 .text          0x0000000000000000        0x0 dmgcpu.o
 .data          0x0000000000000000        0x0 dmgcpu.o
 .bss           0x0000000000000000        0x0 dmgcpu.o
 .text          0x0000000000000000        0x0 video.o
 .data          0x0000000000000000        0x0 video.o
 .bss           0x0000000000000000        0x0 video.o
 .text          0x0000000000000000        0x0 decoder.o
 .data          0x0000000000000000        0x0 decoder.o
 .bss           0x0000000000000000        0x0 decoder.o
 .text          0x0000000000000000        0x0 pff.o
 .data          0x0000000000000000        0x0 pff.o
 .bss           0x0000000000000000        0x0 pff.o
 .text.dir_read
                0x0000000000000000       0xb8 pff.o
 .text.get_fileinfo
                0x0000000000000000      0x11c pff.o
 .text.pf_opendir
                0x0000000000000000       0xc0 pff.o
 .text.pf_readdir
                0x0000000000000000       0xa4 pff.o
 .text          0x0000000000000000        0x0 mmc.o
 .data          0x0000000000000000        0x0 mmc.o
 .bss           0x0000000000000000        0x0 mmc.o
 .text          0x0000000000000000      0x424 /home/hreis/gcc-arm-none-eabi-7-2017-q4-major/bin/../lib/gcc/arm-none-eabi/7.2.1/thumb/v7-m/libgcc.a(_arm_muldivdf3.o)
 .data          0x0000000000000000        0x0 /home/hreis/gcc-arm-none-eabi-7-2017-q4-major/bin/../lib/gcc/arm-none-eabi/7.2.1/thumb/v7-m/libgcc.a(_arm_muldivdf3.o)
 .bss           0x0000000000000000        0x0 /home/hreis/gcc-arm-none-eabi-7-2017-q4-major/bin/../lib/gcc/arm-none-eabi/7.2.1/thumb/v7-m/libgcc.a(_arm_muldivdf3.o)
 .debug_frame   0x0000000000000000       0x50 /home/hreis/gcc-arm-none-eabi-7-2017-q4-major/bin/../lib/gcc/arm-none-eabi/7.2.1/thumb/v7-m/libgcc.a(_arm_muldivdf3.o)
 .ARM.attributes
                0x0000000000000000       0x1d /home/hreis/gcc-arm-none-eabi-7-2017-q4-major/bin/../lib/gcc/arm-none-eabi/7.2.1/thumb/v7-m/libgcc.a(_arm_muldivdf3.o)
 .text          0x0000000000000000       0x50 /home/hreis/gcc-arm-none-eabi-7-2017-q4-major/bin/../lib/gcc/arm-none-eabi/7.2.1/thumb/v7-m/libgcc.a(_arm_fixdfsi.o)
 .data          0x0000000000000000        0x0 /home/hreis/gcc-arm-none-eabi-7-2017-q4-major/bin/../lib/gcc/arm-none-eabi/7.2.1/thumb/v7-m/libgcc.a(_arm_fixdfsi.o)
 .bss           0x0000000000000000        0x0 /home/hreis/gcc-arm-none-eabi-7-2017-q4-major/bin/../lib/gcc/arm-none-eabi/7.2.1/thumb/v7-m/libgcc.a(_arm_fixdfsi.o)
 .debug_frame   0x0000000000000000       0x24 /home/hreis/gcc-arm-none-eabi-7-2017-q4-major/bin/../lib/gcc/arm-none-eabi/7.2.1/thumb/v7-m/libgcc.a(_arm_fixdfsi.o)
 .ARM.attributes
                0x0000000000000000       0x1d /home/hreis/gcc-arm-none-eabi-7-2017-q4-major/bin/../lib/gcc/arm-none-eabi/7.2.1/thumb/v7-m/libgcc.a(_arm_fixdfsi.o)
 .text          0x0000000000000000        0x0 /home/hreis/gcc-arm-none-eabi-7-2017-q4-major/bin/../lib/gcc/arm-none-eabi/7.2.1/../../../../arm-none-eabi/lib/thumb/v7-m/libc.a(lib_a-exit.o)
 .data          0x0000000000000000        0x0 /home/hreis/gcc-arm-none-eabi-7-2017-q4-major/bin/../lib/gcc/arm-none-eabi/7.2.1/../../../../arm-none-eabi/lib/thumb/v7-m/libc.a(lib_a-exit.o)
 .bss           0x0000000000000000        0x0 /home/hreis/gcc-arm-none-eabi-7-2017-q4-major/bin/../lib/gcc/arm-none-eabi/7.2.1/../../../../arm-none-eabi/lib/thumb/v7-m/libc.a(lib_a-exit.o)
 .text.exit     0x0000000000000000       0x20 /home/hreis/gcc-arm-none-eabi-7-2017-q4-major/bin/../lib/gcc/arm-none-eabi/7.2.1/../../../../arm-none-eabi/lib/thumb/v7-m/libc.a(lib_a-exit.o)
 .debug_frame   0x0000000000000000       0x28 /home/hreis/gcc-arm-none-eabi-7-2017-q4-major/bin/../lib/gcc/arm-none-eabi/7.2.1/../../../../arm-none-eabi/lib/thumb/v7-m/libc.a(lib_a-exit.o)
 .ARM.attributes
                0x0000000000000000       0x2d /home/hreis/gcc-arm-none-eabi-7-2017-q4-major/bin/../lib/gcc/arm-none-eabi/7.2.1/../../../../arm-none-eabi/lib/thumb/v7-m/libc.a(lib_a-exit.o)
 .text          0x0000000000000000        0x0 /home/hreis/gcc-arm-none-eabi-7-2017-q4-major/bin/../lib/gcc/arm-none-eabi/7.2.1/../../../../arm-none-eabi/lib/thumb/v7-m/libc.a(lib_a-impure.o)
 .data          0x0000000000000000        0x0 /home/hreis/gcc-arm-none-eabi-7-2017-q4-major/bin/../lib/gcc/arm-none-eabi/7.2.1/../../../../arm-none-eabi/lib/thumb/v7-m/libc.a(lib_a-impure.o)
 .bss           0x0000000000000000        0x0 /home/hreis/gcc-arm-none-eabi-7-2017-q4-major/bin/../lib/gcc/arm-none-eabi/7.2.1/../../../../arm-none-eabi/lib/thumb/v7-m/libc.a(lib_a-impure.o)
 .data._impure_ptr
                0x0000000000000000        0x4 /home/hreis/gcc-arm-none-eabi-7-2017-q4-major/bin/../lib/gcc/arm-none-eabi/7.2.1/../../../../arm-none-eabi/lib/thumb/v7-m/libc.a(lib_a-impure.o)
 .text          0x0000000000000000        0x0 /home/hreis/gcc-arm-none-eabi-7-2017-q4-major/bin/../lib/gcc/arm-none-eabi/7.2.1/../../../../arm-none-eabi/lib/thumb/v7-m/libc.a(lib_a-init.o)
 .data          0x0000000000000000        0x0 /home/hreis/gcc-arm-none-eabi-7-2017-q4-major/bin/../lib/gcc/arm-none-eabi/7.2.1/../../../../arm-none-eabi/lib/thumb/v7-m/libc.a(lib_a-init.o)
 .bss           0x0000000000000000        0x0 /home/hreis/gcc-arm-none-eabi-7-2017-q4-major/bin/../lib/gcc/arm-none-eabi/7.2.1/../../../../arm-none-eabi/lib/thumb/v7-m/libc.a(lib_a-init.o)
 .text.__libc_init_array
                0x0000000000000000       0x48 /home/hreis/gcc-arm-none-eabi-7-2017-q4-major/bin/../lib/gcc/arm-none-eabi/7.2.1/../../../../arm-none-eabi/lib/thumb/v7-m/libc.a(lib_a-init.o)
 .debug_frame   0x0000000000000000       0x2c /home/hreis/gcc-arm-none-eabi-7-2017-q4-major/bin/../lib/gcc/arm-none-eabi/7.2.1/../../../../arm-none-eabi/lib/thumb/v7-m/libc.a(lib_a-init.o)
 .ARM.attributes
                0x0000000000000000       0x2d /home/hreis/gcc-arm-none-eabi-7-2017-q4-major/bin/../lib/gcc/arm-none-eabi/7.2.1/../../../../arm-none-eabi/lib/thumb/v7-m/libc.a(lib_a-init.o)
 .text          0x0000000000000000        0x0 /home/hreis/gcc-arm-none-eabi-7-2017-q4-major/bin/../lib/gcc/arm-none-eabi/7.2.1/../../../../arm-none-eabi/lib/thumb/v7-m/libc.a(lib_a-memset.o)
 .data          0x0000000000000000        0x0 /home/hreis/gcc-arm-none-eabi-7-2017-q4-major/bin/../lib/gcc/arm-none-eabi/7.2.1/../../../../arm-none-eabi/lib/thumb/v7-m/libc.a(lib_a-memset.o)
 .bss           0x0000000000000000        0x0 /home/hreis/gcc-arm-none-eabi-7-2017-q4-major/bin/../lib/gcc/arm-none-eabi/7.2.1/../../../../arm-none-eabi/lib/thumb/v7-m/libc.a(lib_a-memset.o)
 .text          0x0000000000000000        0x0 /home/hreis/gcc-arm-none-eabi-7-2017-q4-major/bin/../lib/gcc/arm-none-eabi/7.2.1/../../../../arm-none-eabi/lib/thumb/v7-m/libc.a(lib_a-__call_atexit.o)
 .data          0x0000000000000000        0x0 /home/hreis/gcc-arm-none-eabi-7-2017-q4-major/bin/../lib/gcc/arm-none-eabi/7.2.1/../../../../arm-none-eabi/lib/thumb/v7-m/libc.a(lib_a-__call_atexit.o)
 .bss           0x0000000000000000        0x0 /home/hreis/gcc-arm-none-eabi-7-2017-q4-major/bin/../lib/gcc/arm-none-eabi/7.2.1/../../../../arm-none-eabi/lib/thumb/v7-m/libc.a(lib_a-__call_atexit.o)
 .text.__call_exitprocs
                0x0000000000000000       0xe8 /home/hreis/gcc-arm-none-eabi-7-2017-q4-major/bin/../lib/gcc/arm-none-eabi/7.2.1/../../../../arm-none-eabi/lib/thumb/v7-m/libc.a(lib_a-__call_atexit.o)
 .text          0x0000000000000000        0x0 /home/hreis/gcc-arm-none-eabi-7-2017-q4-major/bin/../lib/gcc/arm-none-eabi/7.2.1/../../../../arm-none-eabi/lib/thumb/v7-m/libc.a(lib_a-atexit.o)
 .data          0x0000000000000000        0x0 /home/hreis/gcc-arm-none-eabi-7-2017-q4-major/bin/../lib/gcc/arm-none-eabi/7.2.1/../../../../arm-none-eabi/lib/thumb/v7-m/libc.a(lib_a-atexit.o)
 .bss           0x0000000000000000        0x0 /home/hreis/gcc-arm-none-eabi-7-2017-q4-major/bin/../lib/gcc/arm-none-eabi/7.2.1/../../../../arm-none-eabi/lib/thumb/v7-m/libc.a(lib_a-atexit.o)
 .text          0x0000000000000000        0x0 /home/hreis/gcc-arm-none-eabi-7-2017-q4-major/bin/../lib/gcc/arm-none-eabi/7.2.1/../../../../arm-none-eabi/lib/thumb/v7-m/libc.a(lib_a-fini.o)
 .data          0x0000000000000000        0x0 /home/hreis/gcc-arm-none-eabi-7-2017-q4-major/bin/../lib/gcc/arm-none-eabi/7.2.1/../../../../arm-none-eabi/lib/thumb/v7-m/libc.a(lib_a-fini.o)
 .bss           0x0000000000000000        0x0 /home/hreis/gcc-arm-none-eabi-7-2017-q4-major/bin/../lib/gcc/arm-none-eabi/7.2.1/../../../../arm-none-eabi/lib/thumb/v7-m/libc.a(lib_a-fini.o)
 .text          0x0000000000000000        0x0 /home/hreis/gcc-arm-none-eabi-7-2017-q4-major/bin/../lib/gcc/arm-none-eabi/7.2.1/../../../../arm-none-eabi/lib/thumb/v7-m/libc.a(lib_a-lock.o)
 .data          0x0000000000000000        0x0 /home/hreis/gcc-arm-none-eabi-7-2017-q4-major/bin/../lib/gcc/arm-none-eabi/7.2.1/../../../../arm-none-eabi/lib/thumb/v7-m/libc.a(lib_a-lock.o)
 .bss           0x0000000000000000        0x0 /home/hreis/gcc-arm-none-eabi-7-2017-q4-major/bin/../lib/gcc/arm-none-eabi/7.2.1/../../../../arm-none-eabi/lib/thumb/v7-m/libc.a(lib_a-lock.o)
 .text.__retarget_lock_init
                0x0000000000000000        0x4 /home/hreis/gcc-arm-none-eabi-7-2017-q4-major/bin/../lib/gcc/arm-none-eabi/7.2.1/../../../../arm-none-eabi/lib/thumb/v7-m/libc.a(lib_a-lock.o)
 .text.__retarget_lock_init_recursive
                0x0000000000000000        0x4 /home/hreis/gcc-arm-none-eabi-7-2017-q4-major/bin/../lib/gcc/arm-none-eabi/7.2.1/../../../../arm-none-eabi/lib/thumb/v7-m/libc.a(lib_a-lock.o)
 .text.__retarget_lock_close
                0x0000000000000000        0x4 /home/hreis/gcc-arm-none-eabi-7-2017-q4-major/bin/../lib/gcc/arm-none-eabi/7.2.1/../../../../arm-none-eabi/lib/thumb/v7-m/libc.a(lib_a-lock.o)
 .text.__retarget_lock_close_recursive
                0x0000000000000000        0x4 /home/hreis/gcc-arm-none-eabi-7-2017-q4-major/bin/../lib/gcc/arm-none-eabi/7.2.1/../../../../arm-none-eabi/lib/thumb/v7-m/libc.a(lib_a-lock.o)
 .text.__retarget_lock_acquire
                0x0000000000000000        0x4 /home/hreis/gcc-arm-none-eabi-7-2017-q4-major/bin/../lib/gcc/arm-none-eabi/7.2.1/../../../../arm-none-eabi/lib/thumb/v7-m/libc.a(lib_a-lock.o)
 .text.__retarget_lock_try_acquire
                0x0000000000000000        0x4 /home/hreis/gcc-arm-none-eabi-7-2017-q4-major/bin/../lib/gcc/arm-none-eabi/7.2.1/../../../../arm-none-eabi/lib/thumb/v7-m/libc.a(lib_a-lock.o)
 .text.__retarget_lock_try_acquire_recursive
                0x0000000000000000        0x4 /home/hreis/gcc-arm-none-eabi-7-2017-q4-major/bin/../lib/gcc/arm-none-eabi/7.2.1/../../../../arm-none-eabi/lib/thumb/v7-m/libc.a(lib_a-lock.o)
 .text.__retarget_lock_release
                0x0000000000000000        0x4 /home/hreis/gcc-arm-none-eabi-7-2017-q4-major/bin/../lib/gcc/arm-none-eabi/7.2.1/../../../../arm-none-eabi/lib/thumb/v7-m/libc.a(lib_a-lock.o)
 .text          0x0000000000000000        0x0 /home/hreis/gcc-arm-none-eabi-7-2017-q4-major/bin/../lib/gcc/arm-none-eabi/7.2.1/../../../../arm-none-eabi/lib/thumb/v7-m/libc.a(lib_a-__atexit.o)
 .data          0x0000000000000000        0x0 /home/hreis/gcc-arm-none-eabi-7-2017-q4-major/bin/../lib/gcc/arm-none-eabi/7.2.1/../../../../arm-none-eabi/lib/thumb/v7-m/libc.a(lib_a-__atexit.o)
 .bss           0x0000000000000000        0x0 /home/hreis/gcc-arm-none-eabi-7-2017-q4-major/bin/../lib/gcc/arm-none-eabi/7.2.1/../../../../arm-none-eabi/lib/thumb/v7-m/libc.a(lib_a-__atexit.o)
 .text          0x0000000000000000        0x0 /home/hreis/gcc-arm-none-eabi-7-2017-q4-major/bin/../lib/gcc/arm-none-eabi/7.2.1/thumb/v7-m/crtend.o
 .data          0x0000000000000000        0x0 /home/hreis/gcc-arm-none-eabi-7-2017-q4-major/bin/../lib/gcc/arm-none-eabi/7.2.1/thumb/v7-m/crtend.o
 .bss           0x0000000000000000        0x0 /home/hreis/gcc-arm-none-eabi-7-2017-q4-major/bin/../lib/gcc/arm-none-eabi/7.2.1/thumb/v7-m/crtend.o
 .eh_frame      0x0000000000000000        0x4 /home/hreis/gcc-arm-none-eabi-7-2017-q4-major/bin/../lib/gcc/arm-none-eabi/7.2.1/thumb/v7-m/crtend.o
 .ARM.attributes
                0x0000000000000000       0x2d /home/hreis/gcc-arm-none-eabi-7-2017-q4-major/bin/../lib/gcc/arm-none-eabi/7.2.1/thumb/v7-m/crtend.o
 .text          0x0000000000000000        0x0 /home/hreis/gcc-arm-none-eabi-7-2017-q4-major/bin/../lib/gcc/arm-none-eabi/7.2.1/thumb/v7-m/crtn.o
 .data          0x0000000000000000        0x0 /home/hreis/gcc-arm-none-eabi-7-2017-q4-major/bin/../lib/gcc/arm-none-eabi/7.2.1/thumb/v7-m/crtn.o
 .bss           0x0000000000000000        0x0 /home/hreis/gcc-arm-none-eabi-7-2017-q4-major/bin/../lib/gcc/arm-none-eabi/7.2.1/thumb/v7-m/crtn.o

Memory Configuration

Name             Origin             Length             Attributes
IROM             0x0000000000000000 0x0000000000080000 xr
IRAM0            0x0000000010000000 0x0000000000008000 xrw
IRAM1            0x000000002007c000 0x0000000000004000 xrw
IRAM2            0x0000000020080000 0x0000000000004000 xrw
*default*        0x0000000000000000 0xffffffffffffffff

Linker script and memory map

LOAD /home/hreis/gcc-arm-none-eabi-7-2017-q4-major/bin/../lib/gcc/arm-none-eabi/7.2.1/thumb/v7-m/crti.o
LOAD /home/hreis/gcc-arm-none-eabi-7-2017-q4-major/bin/../lib/gcc/arm-none-eabi/7.2.1/thumb/v7-m/crtbegin.o
LOAD /home/hreis/gcc-arm-none-eabi-7-2017-q4-major/bin/../lib/gcc/arm-none-eabi/7.2.1/../../../../arm-none-eabi/lib/thumb/v7-m/crt0.o
LOAD startup.o
LOAD blueboard.o
LOAD ili9328.o
LOAD spi.o
LOAD main.o
LOAD display.o
LOAD fonts.o
LOAD debug.o
LOAD io.o
LOAD alu.o
LOAD cartridge.o
LOAD dmgcpu.o
LOAD video.o
LOAD decoder.o
LOAD pff.o
LOAD mmc.o
START GROUP
LOAD /home/hreis/gcc-arm-none-eabi-7-2017-q4-major/bin/../lib/gcc/arm-none-eabi/7.2.1/thumb/v7-m/libgcc.a
LOAD /home/hreis/gcc-arm-none-eabi-7-2017-q4-major/bin/../lib/gcc/arm-none-eabi/7.2.1/../../../../arm-none-eabi/lib/thumb/v7-m/libc.a
END GROUP
LOAD /home/hreis/gcc-arm-none-eabi-7-2017-q4-major/bin/../lib/gcc/arm-none-eabi/7.2.1/thumb/v7-m/crtend.o
LOAD /home/hreis/gcc-arm-none-eabi-7-2017-q4-major/bin/../lib/gcc/arm-none-eabi/7.2.1/thumb/v7-m/crtn.o

.text           0x0000000000000000     0x5cc0
 *(.isr_vector .isr_vector.*)
 .isr_vector    0x0000000000000000       0xc4 startup.o
                0x0000000000000000                g_pfnVectors
 *(.text .text.*)
 .text          0x00000000000000c4       0x40 /home/hreis/gcc-arm-none-eabi-7-2017-q4-major/bin/../lib/gcc/arm-none-eabi/7.2.1/thumb/v7-m/crtbegin.o
 .text.NVIC_SetPriority
                0x0000000000000104       0x54 startup.o
 .text.SysTick_Config
                0x0000000000000158       0x44 startup.o
 .text.Reset_Handler
                0x000000000000019c       0xa4 startup.o
                0x000000000000019c                Reset_Handler
 .text.Default_Handler
                0x0000000000000240        0x6 startup.o
                0x0000000000000240                TIMER2_IRQHandler
                0x0000000000000240                DebugMon_Handler
                0x0000000000000240                RIT_IRQHandler
                0x0000000000000240                I2C0_IRQHandler
                0x0000000000000240                PWM1_IRQHandler
                0x0000000000000240                PendSV_Handler
                0x0000000000000240                I2C1_IRQHandler
                0x0000000000000240                EINT2_IRQHandler
                0x0000000000000240                UART1_IRQHandler
                0x0000000000000240                EINT3_IRQHandler
                0x0000000000000240                TIMER3_IRQHandler
                0x0000000000000240                UART0_IRQHandler
                0x0000000000000240                UsageFault_Handler
                0x0000000000000240                PLL0_IRQHandler
                0x0000000000000240                CAN_IRQHandler
                0x0000000000000240                PLL1_IRQHandler
                0x0000000000000240                SSP0_IRQHandler
                0x0000000000000240                I2S_IRQHandler
                0x0000000000000240                I2C2_IRQHandler
                0x0000000000000240                RTC_IRQHandler
                0x0000000000000240                TIMER0_IRQHandler
                0x0000000000000240                SPI_IRQHandler
                0x0000000000000240                EINT1_IRQHandler
                0x0000000000000240                TIMER1_IRQHandler
                0x0000000000000240                UART2_IRQHandler
                0x0000000000000240                Default_Handler
                0x0000000000000240                ADC_IRQHandler
                0x0000000000000240                SSP1_IRQHandler
                0x0000000000000240                USB_IRQHandler
                0x0000000000000240                BOD_IRQHandler
                0x0000000000000240                MemManage_Handler
                0x0000000000000240                WDT_IRQHandler
                0x0000000000000240                SVC_Handler
                0x0000000000000240                QEI_IRQHandler
                0x0000000000000240                EINT0_IRQHandler
                0x0000000000000240                DMA_IRQHandler
                0x0000000000000240                BusFault_Handler
                0x0000000000000240                UART3_IRQHandler
                0x0000000000000240                MCPWM_IRQHandler
                0x0000000000000240                ENET_IRQHandler
 *fill*         0x0000000000000246        0x2 
 .text.SystemInit
                0x0000000000000248       0x30 startup.o
                0x0000000000000248                SystemInit
 .text.NVIC_SetPriority
                0x0000000000000278       0x54 blueboard.o
 .text.SysTick_Config
                0x00000000000002cc       0x44 blueboard.o
 .text.BB_Init  0x0000000000000310       0x98 blueboard.o
                0x0000000000000310                BB_Init
 .text.BB_ConfigPLL
                0x00000000000003a8      0x11c blueboard.o
                0x00000000000003a8                BB_ConfigPLL
 .text.SysTick_Handler
                0x00000000000004c4       0x1c blueboard.o
                0x00000000000004c4                SysTick_Handler
 .text.DelayMs  0x00000000000004e0       0x34 blueboard.o
                0x00000000000004e0                DelayMs
 .text.SystemCoreClockUpdate
                0x0000000000000514      0x170 blueboard.o
                0x0000000000000514                SystemCoreClockUpdate
 .text.LCD_Data
                0x0000000000000684       0x60 ili9328.o
                0x0000000000000684                LCD_Data
 .text.LCD_Command
                0x00000000000006e4       0x68 ili9328.o
                0x00000000000006e4                LCD_Command
 .text.LCD_Window
                0x000000000000074c       0x40 ili9328.o
                0x000000000000074c                LCD_Window
 .text.LCD_Window_N
                0x000000000000078c       0x8e ili9328.o
                0x000000000000078c                LCD_Window_N
 .text.LCD_Scroll
                0x000000000000081a       0x34 ili9328.o
                0x000000000000081a                LCD_Scroll
 *fill*         0x000000000000084e        0x2 
 .text.LCD_Init
                0x0000000000000850      0x31c ili9328.o
                0x0000000000000850                LCD_Init
 .text.LCD_GetWidth
                0x0000000000000b6c       0x14 ili9328.o
                0x0000000000000b6c                LCD_GetWidth
 .text.LCD_GetHeight
                0x0000000000000b80       0x14 ili9328.o
                0x0000000000000b80                LCD_GetHeight
 .text.SPI_Init
                0x0000000000000b94       0x98 spi.o
                0x0000000000000b94                SPI_Init
 .text.SPI      0x0000000000000c2c       0x34 spi.o
                0x0000000000000c2c                SPI
 .text.run      0x0000000000000c60       0x24 main.o
                0x0000000000000c60                run
 .text.main     0x0000000000000c84       0x30 main.o
                0x0000000000000c84                main
 .text.DISPLAY_putc
                0x0000000000000cb4       0xf8 display.o
                0x0000000000000cb4                DISPLAY_putc
 .text.DISPLAY_puts
                0x0000000000000dac       0x28 display.o
                0x0000000000000dac                DISPLAY_puts
 .text.drawCharSimple
                0x0000000000000dd4       0x80 display.o
                0x0000000000000dd4                drawCharSimple
 .text.DISPLAY_Char
                0x0000000000000e54       0x54 display.o
                0x0000000000000e54                DISPLAY_Char
 .text.DBG_Info
                0x0000000000000ea8       0x1c debug.o
                0x0000000000000ea8                DBG_Info
 .text.readJoyPad
                0x0000000000000ec4       0xb8 io.o
                0x0000000000000ec4                readJoyPad
 .text.joyPad   0x0000000000000f7c       0x54 io.o
                0x0000000000000f7c                joyPad
 .text.alu      0x0000000000000fd0      0x258 alu.o
                0x0000000000000fd0                alu
 .text.daa      0x0000000000001228       0xc8 alu.o
                0x0000000000001228                daa
 .text.inc      0x00000000000012f0       0x60 alu.o
                0x00000000000012f0                inc
 .text.dec      0x0000000000001350       0x70 alu.o
                0x0000000000001350                dec
 .text.rlc      0x00000000000013c0       0x5c alu.o
                0x00000000000013c0                rlc
 .text.rrc      0x000000000000141c       0x58 alu.o
                0x000000000000141c                rrc
 .text.rl       0x0000000000001474       0x68 alu.o
                0x0000000000001474                rl
 .text.rr       0x00000000000014dc       0x60 alu.o
                0x00000000000014dc                rr
 .text.sla      0x000000000000153c       0x50 alu.o
                0x000000000000153c                sla
 .text.sra      0x000000000000158c       0x60 alu.o
                0x000000000000158c                sra
 .text.srl      0x00000000000015ec       0x4c alu.o
                0x00000000000015ec                srl
 .text.swap     0x0000000000001638       0x50 alu.o
                0x0000000000001638                swap
 .text.BIT      0x0000000000001688       0x90 alu.o
                0x0000000000001688                BIT
 .text.res      0x0000000000001718       0x94 alu.o
                0x0000000000001718                res
 .text.set      0x00000000000017ac       0x8c alu.o
                0x00000000000017ac                set
 .text.addHL    0x0000000000001838       0x78 alu.o
                0x0000000000001838                addHL
 .text.pop      0x00000000000018b0       0x30 alu.o
                0x00000000000018b0                pop
 .text.push     0x00000000000018e0       0x30 alu.o
                0x00000000000018e0                push
 .text.inc16    0x0000000000001910       0x1e alu.o
                0x0000000000001910                inc16
 .text.dec16    0x000000000000192e       0x1e alu.o
                0x000000000000192e                dec16
 .text.f_error  0x000000000000194c       0x88 cartridge.o
                0x000000000000194c                f_error
 .text.fsInit   0x00000000000019d4       0x24 cartridge.o
                0x00000000000019d4                fsInit
 .text.loadRombank
                0x00000000000019f8       0x34 cartridge.o
                0x00000000000019f8                loadRombank
 .text.loadRom  0x0000000000001a2c       0x6c cartridge.o
                0x0000000000001a2c                loadRom
 .text.cartridgeWrite
                0x0000000000001a98       0x40 cartridge.o
                0x0000000000001a98                cartridgeWrite
 .text.jumpVector
                0x0000000000001ad8       0x3c dmgcpu.o
                0x0000000000001ad8                jumpVector
 .text.interrupts
                0x0000000000001b14       0xe0 dmgcpu.o
                0x0000000000001b14                interrupts
 .text.setTimerPrescaler
                0x0000000000001bf4       0x5c dmgcpu.o
                0x0000000000001bf4                setTimerPrescaler
 .text.timer    0x0000000000001c50       0x90 dmgcpu.o
                0x0000000000001c50                timer
 .text.dma      0x0000000000001ce0       0x48 dmgcpu.o
                0x0000000000001ce0                dma
 .text.memoryRead
                0x0000000000001d28      0x294 dmgcpu.o
                0x0000000000001d28                memoryRead
 .text.memoryWrite
                0x0000000000001fbc      0x2d8 dmgcpu.o
                0x0000000000001fbc                memoryWrite
 .text.memoryRead16
                0x0000000000002294       0x36 dmgcpu.o
                0x0000000000002294                memoryRead16
 .text.memoryWrite16
                0x00000000000022ca       0x3c dmgcpu.o
                0x00000000000022ca                memoryWrite16
 *fill*         0x0000000000002306        0x2 
 .text.initCpu  0x0000000000002308       0xfc dmgcpu.o
                0x0000000000002308                initCpu
 .text.putSpriteData
                0x0000000000002404      0x15c video.o
                0x0000000000002404                putSpriteData
 .text.putBgTileData
                0x0000000000002560      0x128 video.o
                0x0000000000002560                putBgTileData
 .text.putWindowTileData
                0x0000000000002688      0x120 video.o
                0x0000000000002688                putWindowTileData
 .text.scanOAM  0x00000000000027a8       0x90 video.o
                0x00000000000027a8                scanOAM
 .text.scanline
                0x0000000000002838      0x14c video.o
                0x0000000000002838                scanline
 .text.nextLine
                0x0000000000002984       0x6c video.o
                0x0000000000002984                nextLine
 .text.video    0x00000000000029f0      0x1c8 video.o
                0x00000000000029f0                video
 .text.decode   0x0000000000002bb8     0x12a0 decoder.o
                0x0000000000002bb8                decode
 .text.CBcodes  0x0000000000003e58      0x458 decoder.o
                0x0000000000003e58                CBcodes
 .text.mem_set  0x00000000000042b0       0x32 pff.o
 .text.mem_cmp  0x00000000000042e2       0x4c pff.o
 *fill*         0x000000000000432e        0x2 
 .text.get_fat  0x0000000000004330      0x174 pff.o
 .text.clust2sect
                0x00000000000044a4       0x44 pff.o
 .text.dir_rewind
                0x00000000000044e8       0x70 pff.o
 .text.dir_next
                0x0000000000004558       0xb0 pff.o
 .text.dir_find
                0x0000000000004608       0xac pff.o
 .text.create_name
                0x00000000000046b4       0xb6 pff.o
 *fill*         0x000000000000476a        0x2 
 .text.follow_path
                0x000000000000476c      0x104 pff.o
 .text.check_fs
                0x0000000000004870       0xb4 pff.o
 .text.pf_mount
                0x0000000000004924      0x248 pff.o
                0x0000000000004924                pf_mount
 .text.pf_open  0x0000000000004b6c       0xc8 pff.o
                0x0000000000004b6c                pf_open
 .text.pf_read  0x0000000000004c34      0x168 pff.o
                0x0000000000004c34                pf_read
 .text.pf_lseek
                0x0000000000004d9c      0x13c pff.o
                0x0000000000004d9c                pf_lseek
 .text.release_spi
                0x0000000000004ed8       0x1c mmc.o
 .text.send_cmd
                0x0000000000004ef4       0xd4 mmc.o
 .text.disk_initialize
                0x0000000000004fc8      0x18c mmc.o
                0x0000000000004fc8                disk_initialize
 .text.disk_readp
                0x0000000000005154       0xd0 mmc.o
                0x0000000000005154                disk_readp
 .text.disk_writep
                0x0000000000005224       0xf8 mmc.o
                0x0000000000005224                disk_writep
 .text.memset   0x000000000000531c       0x94 /home/hreis/gcc-arm-none-eabi-7-2017-q4-major/bin/../lib/gcc/arm-none-eabi/7.2.1/../../../../arm-none-eabi/lib/thumb/v7-m/libc.a(lib_a-memset.o)
                0x000000000000531c                memset
 .text.startup.register_fini
                0x00000000000053b0       0x14 /home/hreis/gcc-arm-none-eabi-7-2017-q4-major/bin/../lib/gcc/arm-none-eabi/7.2.1/../../../../arm-none-eabi/lib/thumb/v7-m/libc.a(lib_a-__call_atexit.o)
 .text.atexit   0x00000000000053c4        0xc /home/hreis/gcc-arm-none-eabi-7-2017-q4-major/bin/../lib/gcc/arm-none-eabi/7.2.1/../../../../arm-none-eabi/lib/thumb/v7-m/libc.a(lib_a-atexit.o)
                0x00000000000053c4                atexit
 .text.__libc_fini_array
                0x00000000000053d0       0x34 /home/hreis/gcc-arm-none-eabi-7-2017-q4-major/bin/../lib/gcc/arm-none-eabi/7.2.1/../../../../arm-none-eabi/lib/thumb/v7-m/libc.a(lib_a-fini.o)
                0x00000000000053d0                __libc_fini_array
 .text.__retarget_lock_acquire_recursive
                0x0000000000005404        0x4 /home/hreis/gcc-arm-none-eabi-7-2017-q4-major/bin/../lib/gcc/arm-none-eabi/7.2.1/../../../../arm-none-eabi/lib/thumb/v7-m/libc.a(lib_a-lock.o)
                0x0000000000005404                __retarget_lock_acquire_recursive
 .text.__retarget_lock_release_recursive
                0x0000000000005408        0x4 /home/hreis/gcc-arm-none-eabi-7-2017-q4-major/bin/../lib/gcc/arm-none-eabi/7.2.1/../../../../arm-none-eabi/lib/thumb/v7-m/libc.a(lib_a-lock.o)
                0x0000000000005408                __retarget_lock_release_recursive
 .text.__register_exitproc
                0x000000000000540c       0xc0 /home/hreis/gcc-arm-none-eabi-7-2017-q4-major/bin/../lib/gcc/arm-none-eabi/7.2.1/../../../../arm-none-eabi/lib/thumb/v7-m/libc.a(lib_a-__atexit.o)
                0x000000000000540c                __register_exitproc
 *(.gnu.linkonce.t.*)
 *(.glue_7)
 .glue_7        0x00000000000054cc        0x0 linker stubs
 *(.glue_7t)
 .glue_7t       0x00000000000054cc        0x0 linker stubs
 *(.gcc_except_table)
 *(.rodata .rodata*)
 .rodata        0x00000000000054cc       0x11 main.o
 *fill*         0x00000000000054dd        0x3 
 .rodata.FONTDEFAULT
                0x00000000000054e0      0x74a fonts.o
                0x00000000000054e0                FONTDEFAULT
 *fill*         0x0000000000005c2a        0x2 
 .rodata        0x0000000000005c2c       0x61 cartridge.o
 *fill*         0x0000000000005c8d        0x3 
 .rodata.lcd_pal
                0x0000000000005c90        0x8 video.o
                0x0000000000005c90                lcd_pal
 .rodata._global_impure_ptr
                0x0000000000005c98        0x4 /home/hreis/gcc-arm-none-eabi-7-2017-q4-major/bin/../lib/gcc/arm-none-eabi/7.2.1/../../../../arm-none-eabi/lib/thumb/v7-m/libc.a(lib_a-impure.o)
                0x0000000000005c98                _global_impure_ptr
 *(.gnu.linkonce.r.*)
                0x0000000000005c9c                . = ALIGN (0x4)
 *(.init)
 .init          0x0000000000005c9c        0x4 /home/hreis/gcc-arm-none-eabi-7-2017-q4-major/bin/../lib/gcc/arm-none-eabi/7.2.1/thumb/v7-m/crti.o
                0x0000000000005c9c                _init
 .init          0x0000000000005ca0        0x8 /home/hreis/gcc-arm-none-eabi-7-2017-q4-major/bin/../lib/gcc/arm-none-eabi/7.2.1/thumb/v7-m/crtn.o
                0x0000000000005ca8                . = ALIGN (0x4)
                0x0000000000005ca8                __preinit_array_start = .
 *(.preinit_array)
                0x0000000000005ca8                __preinit_array_end = .
                0x0000000000005ca8                . = ALIGN (0x4)
                0x0000000000005ca8                __init_array_start = .
 *(SORT_BY_NAME(.init_array.*))
 .init_array.00000
                0x0000000000005ca8        0x4 /home/hreis/gcc-arm-none-eabi-7-2017-q4-major/bin/../lib/gcc/arm-none-eabi/7.2.1/../../../../arm-none-eabi/lib/thumb/v7-m/libc.a(lib_a-__call_atexit.o)
 *(.init_array)
 .init_array    0x0000000000005cac        0x4 /home/hreis/gcc-arm-none-eabi-7-2017-q4-major/bin/../lib/gcc/arm-none-eabi/7.2.1/thumb/v7-m/crtbegin.o
                0x0000000000005cb0                __init_array_end = .
                0x0000000000005cb0                . = ALIGN (0x4)
 *crtbegin.o(.ctors)
 *(EXCLUDE_FILE(*crtend.o) .ctors)
 *(SORT_BY_NAME(.ctors.*))
 *crtend.o(.ctors)
                0x0000000000005cb0                . = ALIGN (0x4)
 *(.fini)
 .fini          0x0000000000005cb0        0x4 /home/hreis/gcc-arm-none-eabi-7-2017-q4-major/bin/../lib/gcc/arm-none-eabi/7.2.1/thumb/v7-m/crti.o
                0x0000000000005cb0                _fini
 .fini          0x0000000000005cb4        0x8 /home/hreis/gcc-arm-none-eabi-7-2017-q4-major/bin/../lib/gcc/arm-none-eabi/7.2.1/thumb/v7-m/crtn.o
                0x0000000000005cbc                . = ALIGN (0x4)
                0x0000000000005cbc                __fini_array_start = .
 *(.fini_array)
 .fini_array    0x0000000000005cbc        0x4 /home/hreis/gcc-arm-none-eabi-7-2017-q4-major/bin/../lib/gcc/arm-none-eabi/7.2.1/thumb/v7-m/crtbegin.o
 *(SORT_BY_NAME(.fini_array.*))
                0x0000000000005cc0                __fini_array_end = .
                0x0000000000005cc0                . = ALIGN (0x4)
 *crtbegin.o(.dtors)
 *(EXCLUDE_FILE(*crtend.o) .dtors)
 *(SORT_BY_NAME(.dtors.*))
 *crtend.o(.dtors)
                0x0000000000005cc0                _etext = .
                0x0000000000005cc0                _sifastcode = .
                0x0000000000005cc0                __exidx_start = .

.vfp11_veneer   0x0000000000005cc0        0x0
 .vfp11_veneer  0x0000000000005cc0        0x0 linker stubs

.v4_bx          0x0000000000005cc0        0x0
 .v4_bx         0x0000000000005cc0        0x0 linker stubs

.iplt           0x0000000000005cc0        0x0
 .iplt          0x0000000000005cc0        0x0 /home/hreis/gcc-arm-none-eabi-7-2017-q4-major/bin/../lib/gcc/arm-none-eabi/7.2.1/thumb/v7-m/crtbegin.o

.eh_frame       0x0000000000005cc0        0x0
 .eh_frame      0x0000000000005cc0        0x0 /home/hreis/gcc-arm-none-eabi-7-2017-q4-major/bin/../lib/gcc/arm-none-eabi/7.2.1/thumb/v7-m/crtbegin.o

.rel.dyn        0x0000000000005cc0        0x0
 .rel.iplt      0x0000000000005cc0        0x0 /home/hreis/gcc-arm-none-eabi-7-2017-q4-major/bin/../lib/gcc/arm-none-eabi/7.2.1/thumb/v7-m/crtbegin.o

.ARM.exidx
 *(.ARM.exidx* .gnu.linkonce.armexidx.*)
                0x0000000000005cc0                __exidx_end = .

.fastcode       0x0000000010000000        0x0 load address 0x0000000000005cc0
                0x0000000010000000                . = ALIGN (0x4)
                0x0000000010000000                _sfastcode = .
 *(.glue_7t)
 *(.glue_7)
 *(.fastcode)
                0x0000000010000000                . = ALIGN (0x4)
                0x0000000010000000                _efastcode = .
                0x0000000010000000                _sidata = .

.usb_ram
 *.o(USB_RAM)

.data           0x0000000010000000      0x454 load address 0x0000000000005cc0
                0x0000000000005cc0                _sidata = LOADADDR (.data)
                0x0000000010000000                . = ALIGN (0x4)
                0x0000000010000000                _sdata = .
 *(vtable vtable.*)
 *(.data .data.*)
 .data._display
                0x0000000010000000       0x1c display.o
 .data.ROM0     0x000000001000001c        0x4 cartridge.o
                0x000000001000001c                ROM0
 .data.ROMBANK  0x0000000010000020        0x4 cartridge.o
                0x0000000010000020                ROMBANK
 *fill*         0x0000000010000024        0x4 
 .data.impure_data
                0x0000000010000028      0x428 /home/hreis/gcc-arm-none-eabi-7-2017-q4-major/bin/../lib/gcc/arm-none-eabi/7.2.1/../../../../arm-none-eabi/lib/thumb/v7-m/libc.a(lib_a-impure.o)
 .data.__atexit_recursive_mutex
                0x0000000010000450        0x4 /home/hreis/gcc-arm-none-eabi-7-2017-q4-major/bin/../lib/gcc/arm-none-eabi/7.2.1/../../../../arm-none-eabi/lib/thumb/v7-m/libc.a(lib_a-__call_atexit.o)
                0x0000000010000450                __atexit_recursive_mutex
 *(.gnu.linkonce.d*)
                0x0000000010000454                . = ALIGN (0x4)
                0x0000000010000454                _edata = .

.igot.plt       0x0000000010000454        0x0 load address 0x0000000000006114
 .igot.plt      0x0000000010000454        0x0 /home/hreis/gcc-arm-none-eabi-7-2017-q4-major/bin/../lib/gcc/arm-none-eabi/7.2.1/thumb/v7-m/crtbegin.o

.bss            0x0000000010000454     0x42e0 load address 0x0000000000006114
                0x0000000010000454                . = ALIGN (0x4)
                0x0000000010000454                _sbss = .
 *(.bss .bss.*)
 .bss           0x0000000010000454       0x1c /home/hreis/gcc-arm-none-eabi-7-2017-q4-major/bin/../lib/gcc/arm-none-eabi/7.2.1/thumb/v7-m/crtbegin.o
 .bss.systicks  0x0000000010000470        0x4 blueboard.o
                0x0000000010000470                systicks
 .bss._width    0x0000000010000474        0x2 ili9328.o
 .bss._height   0x0000000010000476        0x2 ili9328.o
 .bss.button.5251
                0x0000000010000478        0x1 io.o
 *fill*         0x0000000010000479        0x3 
 .bss.machine_cycles
                0x000000001000047c        0x4 dmgcpu.o
                0x000000001000047c                machine_cycles
 .bss.timer_cycles
                0x0000000010000480        0x2 dmgcpu.o
                0x0000000010000480                timer_cycles
 .bss.video_cycles
                0x0000000010000482        0x2 video.o
                0x0000000010000482                video_cycles
 .bss.FatFs     0x0000000010000484        0x4 pff.o
 .bss.wc.5259   0x0000000010000488        0x2 mmc.o
 *(.gnu.linkonce.b*)
 *(COMMON)
 *fill*         0x000000001000048a        0x2 
 COMMON         0x000000001000048c        0xc blueboard.o
                0x000000001000048c                SystemCoreClock
                0x0000000010000490                _KEYS
 COMMON         0x0000000010000498        0x4 ili9328.o
                0x0000000010000498                LCD_WindowRotation
 COMMON         0x000000001000049c       0x31 cartridge.o
                0x000000001000049c                drive0
                0x00000000100004cc                bankSelect
 *fill*         0x00000000100004cd        0x3 
 COMMON         0x00000000100004d0     0x414b dmgcpu.o
                0x00000000100004d0                stopped
                0x00000000100004d1                IOSCY
                0x00000000100004d4                oam
                0x0000000010000574                IOTAC
                0x0000000010000575                IOLY
                0x0000000010000578                iram
                0x0000000010002578                IOTIMA
                0x0000000010002579                IODMA
                0x000000001000257a                IOBGP
                0x000000001000257b                IOSTAT
                0x000000001000257c                IOSCX
                0x000000001000257d                IOWX
                0x000000001000257e                IOIF
                0x000000001000257f                IOTMA
                0x0000000010002580                IOOBP1
                0x0000000010002581                cycles
                0x0000000010002582                IOOBP0
                0x0000000010002584                hram
                0x0000000010002604                IOLYC
                0x0000000010002605                IME
                0x0000000010002606                halted
                0x0000000010002607                IOLCDC
                0x0000000010002608                vram
                0x0000000010004608                regs
                0x0000000010004614                IODIV
                0x0000000010004615                IOIE
                0x0000000010004616                IOWY
                0x0000000010004618                timer_prescaler
                0x000000001000461a                IOP1
 *fill*         0x000000001000461b        0x1 
 COMMON         0x000000001000461c       0xf1 video.o
                0x000000001000461c                spriteline
                0x0000000010004644                scanlinedata
                0x00000000100046e4                bgdataline
                0x000000001000470c                frame
 COMMON         0x000000001000470d        0x1 mmc.o
                0x000000001000470d                CardType
 *fill*         0x000000001000470e        0x2 
 COMMON         0x0000000010004710       0x21 /home/hreis/gcc-arm-none-eabi-7-2017-q4-major/bin/../lib/gcc/arm-none-eabi/7.2.1/../../../../arm-none-eabi/lib/thumb/v7-m/libc.a(lib_a-lock.o)
                0x0000000010004710                __lock___atexit_recursive_mutex
                0x0000000010004714                __lock___arc4random_mutex
                0x0000000010004718                __lock___env_recursive_mutex
                0x000000001000471c                __lock___sinit_recursive_mutex
                0x0000000010004720                __lock___malloc_recursive_mutex
                0x0000000010004724                __lock___at_quick_exit_mutex
                0x0000000010004728                __lock___dd_hash_mutex
                0x000000001000472c                __lock___tz_mutex
                0x0000000010004730                __lock___sfp_recursive_mutex
                0x0000000010004734                . = ALIGN (0x4)
 *fill*         0x0000000010004731        0x3 
                0x0000000010004734                _ebss = .

.stackarea      0x0000000010004734        0x4 load address 0x0000000000006114
                0x0000000010004738                . = ALIGN (0x8)
 *fill*         0x0000000010004734        0x4 
                0x0000000010004738                _sstack = .
 *(.stackarea .stackarea.*)
                0x0000000010004738                . = ALIGN (0x8)
                0x0000000010004738                _estack = .
                0x0000000010004738                . = ALIGN (0x4)
                0x0000000010004738                _end = .
                [!provide]                        PROVIDE (end, .)
                0x0000000010008000                _stack = (ORIGIN (IRAM0) + LENGTH (IRAM0))

.stab
 *(.stab)

.stabstr
 *(.stabstr)

.stab.excl
 *(.stab.excl)

.stab.exclstr
 *(.stab.exclstr)

.stab.index
 *(.stab.index)

.stab.indexstr
 *(.stab.indexstr)

.debug
 *(.debug)

.line
 *(.line)

.debug_srcinfo
 *(.debug_srcinfo)

.debug_sfnames
 *(.debug_sfnames)

.debug_aranges  0x0000000000000000      0x5c0
 *(.debug_aranges)
 .debug_aranges
                0x0000000000000000       0x40 startup.o
 .debug_aranges
                0x0000000000000040       0x70 blueboard.o
 .debug_aranges
                0x00000000000000b0       0x90 ili9328.o
 .debug_aranges
                0x0000000000000140       0x30 spi.o
 .debug_aranges
                0x0000000000000170       0x28 main.o
 .debug_aranges
                0x0000000000000198       0xd0 display.o
 .debug_aranges
                0x0000000000000268       0x18 fonts.o
 .debug_aranges
                0x0000000000000280       0x50 debug.o
 .debug_aranges
                0x00000000000002d0       0x28 io.o
 .debug_aranges
                0x00000000000002f8       0xb8 alu.o
 .debug_aranges
                0x00000000000003b0       0x48 cartridge.o
 .debug_aranges
                0x00000000000003f8       0x68 dmgcpu.o
 .debug_aranges
                0x0000000000000460       0x50 video.o
 .debug_aranges
                0x00000000000004b0       0x28 decoder.o
 .debug_aranges
                0x00000000000004d8       0xa8 pff.o
 .debug_aranges
                0x0000000000000580       0x40 mmc.o

.debug_pubnames
 *(.debug_pubnames)

.debug_info     0x0000000000000000     0xbc74
 *(.debug_info .gnu.linkonce.wi.*)
 .debug_info    0x0000000000000000      0x670 startup.o
 .debug_info    0x0000000000000670     0x172b blueboard.o
 .debug_info    0x0000000000001d9b      0xffe ili9328.o
 .debug_info    0x0000000000002d99      0x5ef spi.o
 .debug_info    0x0000000000003388      0xd51 main.o
 .debug_info    0x00000000000040d9     0x1133 display.o
 .debug_info    0x000000000000520c      0x9d2 fonts.o
 .debug_info    0x0000000000005bde      0xf8c debug.o
 .debug_info    0x0000000000006b6a      0x735 io.o
 .debug_info    0x000000000000729f      0x74e alu.o
 .debug_info    0x00000000000079ed      0xc81 cartridge.o
 .debug_info    0x000000000000866e      0x6eb dmgcpu.o
 .debug_info    0x0000000000008d59     0x105d video.o
 .debug_info    0x0000000000009db6      0xd5a decoder.o
 .debug_info    0x000000000000ab10      0xaf8 pff.o
 .debug_info    0x000000000000b608      0x66c mmc.o

.debug_abbrev   0x0000000000000000     0x2141
 *(.debug_abbrev)
 .debug_abbrev  0x0000000000000000      0x1d2 startup.o
 .debug_abbrev  0x00000000000001d2      0x2f6 blueboard.o
 .debug_abbrev  0x00000000000004c8      0x29a ili9328.o
 .debug_abbrev  0x0000000000000762      0x157 spi.o
 .debug_abbrev  0x00000000000008b9      0x1e8 main.o
 .debug_abbrev  0x0000000000000aa1      0x30b display.o
 .debug_abbrev  0x0000000000000dac      0x186 fonts.o
 .debug_abbrev  0x0000000000000f32      0x27a debug.o
 .debug_abbrev  0x00000000000011ac      0x144 io.o
 .debug_abbrev  0x00000000000012f0      0x1e0 alu.o
 .debug_abbrev  0x00000000000014d0      0x24c cartridge.o
 .debug_abbrev  0x000000000000171c      0x20b dmgcpu.o
 .debug_abbrev  0x0000000000001927      0x287 video.o
 .debug_abbrev  0x0000000000001bae      0x224 decoder.o
 .debug_abbrev  0x0000000000001dd2      0x1f6 pff.o
 .debug_abbrev  0x0000000000001fc8      0x179 mmc.o

.debug_line     0x0000000000000000     0x2e39
 *(.debug_line)
 .debug_line    0x0000000000000000      0x1a2 startup.o
 .debug_line    0x00000000000001a2      0x2f1 blueboard.o
 .debug_line    0x0000000000000493      0x372 ili9328.o
 .debug_line    0x0000000000000805      0x154 spi.o
 .debug_line    0x0000000000000959      0x1f8 main.o
 .debug_line    0x0000000000000b51      0x4cd display.o
 .debug_line    0x000000000000101e      0x197 fonts.o
 .debug_line    0x00000000000011b5      0x2bd debug.o
 .debug_line    0x0000000000001472      0x162 io.o
 .debug_line    0x00000000000015d4      0x3e3 alu.o
 .debug_line    0x00000000000019b7      0x258 cartridge.o
 .debug_line    0x0000000000001c0f      0x2b6 dmgcpu.o
 .debug_line    0x0000000000001ec5      0x3d7 video.o
 .debug_line    0x000000000000229c      0x391 decoder.o
 .debug_line    0x000000000000262d      0x541 pff.o
 .debug_line    0x0000000000002b6e      0x2cb mmc.o

.debug_frame    0x0000000000000000     0x165c
 *(.debug_frame)
 .debug_frame   0x0000000000000000       0xb4 startup.o
 .debug_frame   0x00000000000000b4      0x194 blueboard.o
 .debug_frame   0x0000000000000248      0x238 ili9328.o
 .debug_frame   0x0000000000000480       0x80 spi.o
 .debug_frame   0x0000000000000500       0x48 main.o
 .debug_frame   0x0000000000000548      0x378 display.o
 .debug_frame   0x00000000000008c0      0x11c debug.o
 .debug_frame   0x00000000000009dc       0x5c io.o
 .debug_frame   0x0000000000000a38      0x31c alu.o
 .debug_frame   0x0000000000000d54       0xe8 cartridge.o
 .debug_frame   0x0000000000000e3c      0x178 dmgcpu.o
 .debug_frame   0x0000000000000fb4      0x10c video.o
 .debug_frame   0x00000000000010c0       0x60 decoder.o
 .debug_frame   0x0000000000001120      0x2ac pff.o
 .debug_frame   0x00000000000013cc       0xc4 mmc.o
 .debug_frame   0x0000000000001490       0x38 /home/hreis/gcc-arm-none-eabi-7-2017-q4-major/bin/../lib/gcc/arm-none-eabi/7.2.1/../../../../arm-none-eabi/lib/thumb/v7-m/libc.a(lib_a-memset.o)
 .debug_frame   0x00000000000014c8       0x5c /home/hreis/gcc-arm-none-eabi-7-2017-q4-major/bin/../lib/gcc/arm-none-eabi/7.2.1/../../../../arm-none-eabi/lib/thumb/v7-m/libc.a(lib_a-__call_atexit.o)
 .debug_frame   0x0000000000001524       0x20 /home/hreis/gcc-arm-none-eabi-7-2017-q4-major/bin/../lib/gcc/arm-none-eabi/7.2.1/../../../../arm-none-eabi/lib/thumb/v7-m/libc.a(lib_a-atexit.o)
 .debug_frame   0x0000000000001544       0x34 /home/hreis/gcc-arm-none-eabi-7-2017-q4-major/bin/../lib/gcc/arm-none-eabi/7.2.1/../../../../arm-none-eabi/lib/thumb/v7-m/libc.a(lib_a-fini.o)
 .debug_frame   0x0000000000001578       0xb0 /home/hreis/gcc-arm-none-eabi-7-2017-q4-major/bin/../lib/gcc/arm-none-eabi/7.2.1/../../../../arm-none-eabi/lib/thumb/v7-m/libc.a(lib_a-lock.o)
 .debug_frame   0x0000000000001628       0x34 /home/hreis/gcc-arm-none-eabi-7-2017-q4-major/bin/../lib/gcc/arm-none-eabi/7.2.1/../../../../arm-none-eabi/lib/thumb/v7-m/libc.a(lib_a-__atexit.o)

.debug_str      0x0000000000000000     0x1690
 *(.debug_str)
 .debug_str     0x0000000000000000      0x4f6 startup.o
                                        0x546 (size before relaxing)
 .debug_str     0x00000000000004f6      0x7a8 blueboard.o
                                        0xc7d (size before relaxing)
 .debug_str     0x0000000000000c9e       0xd4 ili9328.o
                                        0x7e3 (size before relaxing)
 .debug_str     0x0000000000000d72       0x42 spi.o
                                        0x446 (size before relaxing)
 .debug_str     0x0000000000000db4       0xb6 main.o
                                        0x6a3 (size before relaxing)
 .debug_str     0x0000000000000e6a      0x258 display.o
                                        0x83c (size before relaxing)
 .debug_str     0x00000000000010c2        0x8 fonts.o
                                        0x5b1 (size before relaxing)
 .debug_str     0x00000000000010ca       0x88 debug.o
                                        0x71c (size before relaxing)
 .debug_str     0x0000000000001152       0x2b io.o
                                        0x3f0 (size before relaxing)
 .debug_str     0x000000000000117d       0x2c alu.o
                                        0x281 (size before relaxing)
 .debug_str     0x00000000000011a9      0x155 cartridge.o
                                        0x720 (size before relaxing)
 .debug_str     0x00000000000012fe       0xbd dmgcpu.o
                                        0x332 (size before relaxing)
 .debug_str     0x00000000000013bb       0xeb video.o
                                        0x780 (size before relaxing)
 .debug_str     0x00000000000014a6       0x30 decoder.o
                                        0x69b (size before relaxing)
 .debug_str     0x00000000000014d6      0x16c pff.o
                                        0x417 (size before relaxing)
 .debug_str     0x0000000000001642       0x4e mmc.o
                                        0x3c4 (size before relaxing)

.debug_loc      0x0000000000000000     0x2a70
 *(.debug_loc)
 .debug_loc     0x0000000000000000      0x13c startup.o
 .debug_loc     0x000000000000013c      0x34c blueboard.o
 .debug_loc     0x0000000000000488      0x4a4 ili9328.o
 .debug_loc     0x000000000000092c       0xfc spi.o
 .debug_loc     0x0000000000000a28       0x58 main.o
 .debug_loc     0x0000000000000a80      0x760 display.o
 .debug_loc     0x00000000000011e0      0x218 debug.o
 .debug_loc     0x00000000000013f8       0xac io.o
 .debug_loc     0x00000000000014a4      0x6f4 alu.o
 .debug_loc     0x0000000000001b98      0x1d4 cartridge.o
 .debug_loc     0x0000000000001d6c      0x2fc dmgcpu.o
 .debug_loc     0x0000000000002068      0x224 video.o
 .debug_loc     0x000000000000228c       0xa0 decoder.o
 .debug_loc     0x000000000000232c      0x5d8 pff.o
 .debug_loc     0x0000000000002904      0x16c mmc.o

.debug_macinfo
 *(.debug_macinfo)

.debug_weaknames
 *(.debug_weaknames)

.debug_funcnames
 *(.debug_funcnames)

.debug_typenames
 *(.debug_typenames)

.debug_varnames
 *(.debug_varnames)
OUTPUT(bbgb.elf elf32-littlearm)

.ARM.attributes
                0x0000000000000000       0x29
 .ARM.attributes
                0x0000000000000000       0x1d /home/hreis/gcc-arm-none-eabi-7-2017-q4-major/bin/../lib/gcc/arm-none-eabi/7.2.1/thumb/v7-m/crti.o
 .ARM.attributes
                0x000000000000001d       0x2d /home/hreis/gcc-arm-none-eabi-7-2017-q4-major/bin/../lib/gcc/arm-none-eabi/7.2.1/thumb/v7-m/crtbegin.o
 .ARM.attributes
                0x000000000000004a       0x33 startup.o
 .ARM.attributes
                0x000000000000007d       0x33 blueboard.o
 .ARM.attributes
                0x00000000000000b0       0x33 ili9328.o
 .ARM.attributes
                0x00000000000000e3       0x33 spi.o
 .ARM.attributes
                0x0000000000000116       0x33 main.o
 .ARM.attributes
                0x0000000000000149       0x33 display.o
 .ARM.attributes
                0x000000000000017c       0x33 fonts.o
 .ARM.attributes
                0x00000000000001af       0x33 debug.o
 .ARM.attributes
                0x00000000000001e2       0x33 io.o
 .ARM.attributes
                0x0000000000000215       0x33 alu.o
 .ARM.attributes
                0x0000000000000248       0x33 cartridge.o
 .ARM.attributes
                0x000000000000027b       0x33 dmgcpu.o
 .ARM.attributes
                0x00000000000002ae       0x33 video.o
 .ARM.attributes
                0x00000000000002e1       0x33 decoder.o
 .ARM.attributes
                0x0000000000000314       0x33 pff.o
 .ARM.attributes
                0x0000000000000347       0x33 mmc.o
 .ARM.attributes
                0x000000000000037a       0x2d /home/hreis/gcc-arm-none-eabi-7-2017-q4-major/bin/../lib/gcc/arm-none-eabi/7.2.1/../../../../arm-none-eabi/lib/thumb/v7-m/libc.a(lib_a-impure.o)
 .ARM.attributes
                0x00000000000003a7       0x2d /home/hreis/gcc-arm-none-eabi-7-2017-q4-major/bin/../lib/gcc/arm-none-eabi/7.2.1/../../../../arm-none-eabi/lib/thumb/v7-m/libc.a(lib_a-memset.o)
 .ARM.attributes
                0x00000000000003d4       0x2d /home/hreis/gcc-arm-none-eabi-7-2017-q4-major/bin/../lib/gcc/arm-none-eabi/7.2.1/../../../../arm-none-eabi/lib/thumb/v7-m/libc.a(lib_a-__call_atexit.o)
 .ARM.attributes
                0x0000000000000401       0x2d /home/hreis/gcc-arm-none-eabi-7-2017-q4-major/bin/../lib/gcc/arm-none-eabi/7.2.1/../../../../arm-none-eabi/lib/thumb/v7-m/libc.a(lib_a-atexit.o)
 .ARM.attributes
                0x000000000000042e       0x2d /home/hreis/gcc-arm-none-eabi-7-2017-q4-major/bin/../lib/gcc/arm-none-eabi/7.2.1/../../../../arm-none-eabi/lib/thumb/v7-m/libc.a(lib_a-fini.o)
 .ARM.attributes
                0x000000000000045b       0x2d /home/hreis/gcc-arm-none-eabi-7-2017-q4-major/bin/../lib/gcc/arm-none-eabi/7.2.1/../../../../arm-none-eabi/lib/thumb/v7-m/libc.a(lib_a-lock.o)
 .ARM.attributes
                0x0000000000000488       0x2d /home/hreis/gcc-arm-none-eabi-7-2017-q4-major/bin/../lib/gcc/arm-none-eabi/7.2.1/../../../../arm-none-eabi/lib/thumb/v7-m/libc.a(lib_a-__atexit.o)
 .ARM.attributes
                0x00000000000004b5       0x1d /home/hreis/gcc-arm-none-eabi-7-2017-q4-major/bin/../lib/gcc/arm-none-eabi/7.2.1/thumb/v7-m/crtn.o

.comment        0x0000000000000000       0x7e
 .comment       0x0000000000000000       0x7e startup.o
                                         0x7f (size before relaxing)
 .comment       0x000000000000007e       0x7f blueboard.o
 .comment       0x000000000000007e       0x7f ili9328.o
 .comment       0x000000000000007e       0x7f spi.o
 .comment       0x000000000000007e       0x7f main.o
 .comment       0x000000000000007e       0x7f display.o
 .comment       0x000000000000007e       0x7f fonts.o
 .comment       0x000000000000007e       0x7f debug.o
 .comment       0x000000000000007e       0x7f io.o
 .comment       0x000000000000007e       0x7f alu.o
 .comment       0x000000000000007e       0x7f cartridge.o
 .comment       0x000000000000007e       0x7f dmgcpu.o
 .comment       0x000000000000007e       0x7f video.o
 .comment       0x000000000000007e       0x7f decoder.o
 .comment       0x000000000000007e       0x7f pff.o
 .comment       0x000000000000007e       0x7f mmc.o

.debug_ranges   0x0000000000000000      0x4b8
 .debug_ranges  0x0000000000000000       0x30 startup.o
 .debug_ranges  0x0000000000000030       0x60 blueboard.o
 .debug_ranges  0x0000000000000090       0x80 ili9328.o
 .debug_ranges  0x0000000000000110       0x20 spi.o
 .debug_ranges  0x0000000000000130       0x18 main.o
 .debug_ranges  0x0000000000000148       0xc0 display.o
 .debug_ranges  0x0000000000000208       0x40 debug.o
 .debug_ranges  0x0000000000000248       0x18 io.o
 .debug_ranges  0x0000000000000260       0xa8 alu.o
 .debug_ranges  0x0000000000000308       0x38 cartridge.o
 .debug_ranges  0x0000000000000340       0x58 dmgcpu.o
 .debug_ranges  0x0000000000000398       0x40 video.o
 .debug_ranges  0x00000000000003d8       0x18 decoder.o
 .debug_ranges  0x00000000000003f0       0x98 pff.o
 .debug_ranges  0x0000000000000488       0x30 mmc.o

Cross Reference Table

Symbol                                            File
ADC_IRQHandler                                    startup.o
BB_ClockOut                                       blueboard.o
BB_ConfigPLL                                      blueboard.o
                                                  main.o
BB_Init                                           blueboard.o
                                                  main.o
BIT                                               alu.o
                                                  decoder.o
BOD_IRQHandler                                    startup.o
BusFault_Handler                                  startup.o
CAN_IRQHandler                                    startup.o
CBcodes                                           decoder.o
CardType                                          mmc.o
DBG_Info                                          debug.o
                                                  cartridge.o
DISPLAY_Char                                      display.o
DISPLAY_GetFontHeight                             display.o
DISPLAY_GetFontWidth                              display.o
DISPLAY_GetReference                              display.o
DISPLAY_Goto                                      display.o
DISPLAY_GotoAbsolute                              display.o
DISPLAY_Init                                      display.o
DISPLAY_Pixel                                     display.o
DISPLAY_SetAttribute                              display.o
DISPLAY_SetBcolor                                 display.o
DISPLAY_SetColors                                 display.o
DISPLAY_SetFcolor                                 display.o
DISPLAY_SetFont                                   display.o
DISPLAY_Text                                      display.o
DISPLAY_printf                                    display.o
DISPLAY_putc                                      display.o
                                                  debug.o
DISPLAY_puts                                      display.o
                                                  debug.o
                                                  main.o
DMA_IRQHandler                                    startup.o
DebugMon_Handler                                  startup.o
Default_Handler                                   startup.o
DelayMs                                           blueboard.o
                                                  ili9328.o
EINT0_IRQHandler                                  startup.o
EINT1_IRQHandler                                  startup.o
EINT2_IRQHandler                                  startup.o
EINT3_IRQHandler                                  startup.o
ENET_IRQHandler                                   startup.o
FONTDEFAULT                                       fonts.o
                                                  display.o
GetTicks                                          blueboard.o
                                                  debug.o
HardFault_Handler                                 startup.o
I2C0_IRQHandler                                   startup.o
I2C1_IRQHandler                                   startup.o
I2C2_IRQHandler                                   startup.o
I2S_IRQHandler                                    startup.o
IME                                               dmgcpu.o
                                                  decoder.o
IOBGP                                             dmgcpu.o
                                                  video.o
IODIV                                             dmgcpu.o
IODMA                                             dmgcpu.o
IOIE                                              dmgcpu.o
IOIF                                              dmgcpu.o
                                                  video.o
IOLCDC                                            dmgcpu.o
                                                  video.o
                                                  debug.o
IOLY                                              dmgcpu.o
                                                  video.o
                                                  debug.o
IOLYC                                             dmgcpu.o
                                                  video.o
IOOBP0                                            dmgcpu.o
                                                  video.o
IOOBP1                                            dmgcpu.o
                                                  video.o
IOP1                                              dmgcpu.o
                                                  io.o
IOSCX                                             dmgcpu.o
                                                  video.o
IOSCY                                             dmgcpu.o
                                                  video.o
IOSTAT                                            dmgcpu.o
                                                  video.o
IOTAC                                             dmgcpu.o
IOTIMA                                            dmgcpu.o
IOTMA                                             dmgcpu.o
IOWX                                              dmgcpu.o
                                                  video.o
IOWY                                              dmgcpu.o
                                                  video.o
LCD_Bkl                                           ili9328.o
                                                  display.o
LCD_Clear                                         display.o
LCD_Command                                       ili9328.o
LCD_Data                                          ili9328.o
                                                  video.o
                                                  display.o
LCD_Fill                                          ili9328.o
LCD_GetHeight                                     ili9328.o
                                                  display.o
LCD_GetWidth                                      ili9328.o
                                                  display.o
LCD_Init                                          ili9328.o
                                                  display.o
                                                  blueboard.o
LCD_Pixel                                         ili9328.o
                                                  display.o
LCD_ReadID                                        ili9328.o
LCD_ReadReg                                       ili9328.o
LCD_Rotation                                      ili9328.o
LCD_Scroll                                        ili9328.o
                                                  display.o
LCD_Window                                        ili9328.o
                                                  video.o
                                                  display.o
LCD_WindowRotation                                ili9328.o
LCD_Window_L                                      ili9328.o
LCD_Window_N                                      ili9328.o
MCPWM_IRQHandler                                  startup.o
MemManage_Handler                                 startup.o
NMI_Handler                                       startup.o
PLL0_IRQHandler                                   startup.o
PLL1_IRQHandler                                   startup.o
PWM1_IRQHandler                                   startup.o
PendSV_Handler                                    startup.o
QEI_IRQHandler                                    startup.o
RIT_IRQHandler                                    startup.o
ROM0                                              cartridge.o
                                                  dmgcpu.o
ROMBANK                                           cartridge.o
                                                  dmgcpu.o
RTC_IRQHandler                                    startup.o
Reset_Handler                                     startup.o
SPI                                               spi.o
                                                  mmc.o
SPI_IRQHandler                                    startup.o
SPI_Init                                          spi.o
                                                  blueboard.o
SSP0_IRQHandler                                   startup.o
SSP1_IRQHandler                                   startup.o
SVC_Handler                                       startup.o
SysTick_Handler                                   blueboard.o
                                                  startup.o
SystemCoreClock                                   blueboard.o
                                                  startup.o
SystemCoreClockUpdate                             blueboard.o
SystemInit                                        startup.o
TIMER0_IRQHandler                                 startup.o
TIMER1_IRQHandler                                 startup.o
TIMER2_IRQHandler                                 startup.o
TIMER3_IRQHandler                                 startup.o
UART0_IRQHandler                                  startup.o
UART1_IRQHandler                                  startup.o
UART2_IRQHandler                                  startup.o
UART3_IRQHandler                                  startup.o
USB_IRQHandler                                    startup.o
UsageFault_Handler                                startup.o
WDT_IRQHandler                                    startup.o
_FC                                               debug.o
_KEYS                                             blueboard.o
_SPI_HI_SPEED                                     spi.o
__aeabi_d2iz                                      /home/hreis/gcc-arm-none-eabi-7-2017-q4-major/bin/../lib/gcc/arm-none-eabi/7.2.1/thumb/v7-m/libgcc.a(_arm_fixdfsi.o)
                                                  display.o
__aeabi_ddiv                                      /home/hreis/gcc-arm-none-eabi-7-2017-q4-major/bin/../lib/gcc/arm-none-eabi/7.2.1/thumb/v7-m/libgcc.a(_arm_muldivdf3.o)
__aeabi_dmul                                      /home/hreis/gcc-arm-none-eabi-7-2017-q4-major/bin/../lib/gcc/arm-none-eabi/7.2.1/thumb/v7-m/libgcc.a(_arm_muldivdf3.o)
                                                  display.o
__atexit_recursive_mutex                          /home/hreis/gcc-arm-none-eabi-7-2017-q4-major/bin/../lib/gcc/arm-none-eabi/7.2.1/../../../../arm-none-eabi/lib/thumb/v7-m/libc.a(lib_a-__call_atexit.o)
                                                  /home/hreis/gcc-arm-none-eabi-7-2017-q4-major/bin/../lib/gcc/arm-none-eabi/7.2.1/../../../../arm-none-eabi/lib/thumb/v7-m/libc.a(lib_a-__atexit.o)
__bss_end__                                       /home/hreis/gcc-arm-none-eabi-7-2017-q4-major/bin/../lib/gcc/arm-none-eabi/7.2.1/../../../../arm-none-eabi/lib/thumb/v7-m/crt0.o
__bss_start__                                     /home/hreis/gcc-arm-none-eabi-7-2017-q4-major/bin/../lib/gcc/arm-none-eabi/7.2.1/../../../../arm-none-eabi/lib/thumb/v7-m/crt0.o
__call_exitprocs                                  /home/hreis/gcc-arm-none-eabi-7-2017-q4-major/bin/../lib/gcc/arm-none-eabi/7.2.1/../../../../arm-none-eabi/lib/thumb/v7-m/libc.a(lib_a-__call_atexit.o)
                                                  /home/hreis/gcc-arm-none-eabi-7-2017-q4-major/bin/../lib/gcc/arm-none-eabi/7.2.1/../../../../arm-none-eabi/lib/thumb/v7-m/libc.a(lib_a-exit.o)
__deregister_frame_info                           /home/hreis/gcc-arm-none-eabi-7-2017-q4-major/bin/../lib/gcc/arm-none-eabi/7.2.1/thumb/v7-m/crtbegin.o
__divdf3                                          /home/hreis/gcc-arm-none-eabi-7-2017-q4-major/bin/../lib/gcc/arm-none-eabi/7.2.1/thumb/v7-m/libgcc.a(_arm_muldivdf3.o)
__dso_handle                                      /home/hreis/gcc-arm-none-eabi-7-2017-q4-major/bin/../lib/gcc/arm-none-eabi/7.2.1/thumb/v7-m/crtbegin.o
__fini_array_end                                  /home/hreis/gcc-arm-none-eabi-7-2017-q4-major/bin/../lib/gcc/arm-none-eabi/7.2.1/../../../../arm-none-eabi/lib/thumb/v7-m/libc.a(lib_a-fini.o)
__fini_array_start                                /home/hreis/gcc-arm-none-eabi-7-2017-q4-major/bin/../lib/gcc/arm-none-eabi/7.2.1/../../../../arm-none-eabi/lib/thumb/v7-m/libc.a(lib_a-fini.o)
__fixdfsi                                         /home/hreis/gcc-arm-none-eabi-7-2017-q4-major/bin/../lib/gcc/arm-none-eabi/7.2.1/thumb/v7-m/libgcc.a(_arm_fixdfsi.o)
__init_array_end                                  /home/hreis/gcc-arm-none-eabi-7-2017-q4-major/bin/../lib/gcc/arm-none-eabi/7.2.1/../../../../arm-none-eabi/lib/thumb/v7-m/libc.a(lib_a-init.o)
__init_array_start                                /home/hreis/gcc-arm-none-eabi-7-2017-q4-major/bin/../lib/gcc/arm-none-eabi/7.2.1/../../../../arm-none-eabi/lib/thumb/v7-m/libc.a(lib_a-init.o)
__libc_fini                                       /home/hreis/gcc-arm-none-eabi-7-2017-q4-major/bin/../lib/gcc/arm-none-eabi/7.2.1/../../../../arm-none-eabi/lib/thumb/v7-m/libc.a(lib_a-__call_atexit.o)
__libc_fini_array                                 /home/hreis/gcc-arm-none-eabi-7-2017-q4-major/bin/../lib/gcc/arm-none-eabi/7.2.1/../../../../arm-none-eabi/lib/thumb/v7-m/libc.a(lib_a-fini.o)
                                                  /home/hreis/gcc-arm-none-eabi-7-2017-q4-major/bin/../lib/gcc/arm-none-eabi/7.2.1/../../../../arm-none-eabi/lib/thumb/v7-m/libc.a(lib_a-__call_atexit.o)
                                                  /home/hreis/gcc-arm-none-eabi-7-2017-q4-major/bin/../lib/gcc/arm-none-eabi/7.2.1/../../../../arm-none-eabi/lib/thumb/v7-m/crt0.o
__libc_init_array                                 /home/hreis/gcc-arm-none-eabi-7-2017-q4-major/bin/../lib/gcc/arm-none-eabi/7.2.1/../../../../arm-none-eabi/lib/thumb/v7-m/libc.a(lib_a-init.o)
                                                  /home/hreis/gcc-arm-none-eabi-7-2017-q4-major/bin/../lib/gcc/arm-none-eabi/7.2.1/../../../../arm-none-eabi/lib/thumb/v7-m/crt0.o
__lock___arc4random_mutex                         /home/hreis/gcc-arm-none-eabi-7-2017-q4-major/bin/../lib/gcc/arm-none-eabi/7.2.1/../../../../arm-none-eabi/lib/thumb/v7-m/libc.a(lib_a-lock.o)
__lock___at_quick_exit_mutex                      /home/hreis/gcc-arm-none-eabi-7-2017-q4-major/bin/../lib/gcc/arm-none-eabi/7.2.1/../../../../arm-none-eabi/lib/thumb/v7-m/libc.a(lib_a-lock.o)
__lock___atexit_recursive_mutex                   /home/hreis/gcc-arm-none-eabi-7-2017-q4-major/bin/../lib/gcc/arm-none-eabi/7.2.1/../../../../arm-none-eabi/lib/thumb/v7-m/libc.a(lib_a-lock.o)
                                                  /home/hreis/gcc-arm-none-eabi-7-2017-q4-major/bin/../lib/gcc/arm-none-eabi/7.2.1/../../../../arm-none-eabi/lib/thumb/v7-m/libc.a(lib_a-__call_atexit.o)
__lock___dd_hash_mutex                            /home/hreis/gcc-arm-none-eabi-7-2017-q4-major/bin/../lib/gcc/arm-none-eabi/7.2.1/../../../../arm-none-eabi/lib/thumb/v7-m/libc.a(lib_a-lock.o)
__lock___env_recursive_mutex                      /home/hreis/gcc-arm-none-eabi-7-2017-q4-major/bin/../lib/gcc/arm-none-eabi/7.2.1/../../../../arm-none-eabi/lib/thumb/v7-m/libc.a(lib_a-lock.o)
__lock___malloc_recursive_mutex                   /home/hreis/gcc-arm-none-eabi-7-2017-q4-major/bin/../lib/gcc/arm-none-eabi/7.2.1/../../../../arm-none-eabi/lib/thumb/v7-m/libc.a(lib_a-lock.o)
__lock___sfp_recursive_mutex                      /home/hreis/gcc-arm-none-eabi-7-2017-q4-major/bin/../lib/gcc/arm-none-eabi/7.2.1/../../../../arm-none-eabi/lib/thumb/v7-m/libc.a(lib_a-lock.o)
__lock___sinit_recursive_mutex                    /home/hreis/gcc-arm-none-eabi-7-2017-q4-major/bin/../lib/gcc/arm-none-eabi/7.2.1/../../../../arm-none-eabi/lib/thumb/v7-m/libc.a(lib_a-lock.o)
__lock___tz_mutex                                 /home/hreis/gcc-arm-none-eabi-7-2017-q4-major/bin/../lib/gcc/arm-none-eabi/7.2.1/../../../../arm-none-eabi/lib/thumb/v7-m/libc.a(lib_a-lock.o)
__muldf3                                          /home/hreis/gcc-arm-none-eabi-7-2017-q4-major/bin/../lib/gcc/arm-none-eabi/7.2.1/thumb/v7-m/libgcc.a(_arm_muldivdf3.o)
__preinit_array_end                               /home/hreis/gcc-arm-none-eabi-7-2017-q4-major/bin/../lib/gcc/arm-none-eabi/7.2.1/../../../../arm-none-eabi/lib/thumb/v7-m/libc.a(lib_a-init.o)
__preinit_array_start                             /home/hreis/gcc-arm-none-eabi-7-2017-q4-major/bin/../lib/gcc/arm-none-eabi/7.2.1/../../../../arm-none-eabi/lib/thumb/v7-m/libc.a(lib_a-init.o)
__register_exitproc                               /home/hreis/gcc-arm-none-eabi-7-2017-q4-major/bin/../lib/gcc/arm-none-eabi/7.2.1/../../../../arm-none-eabi/lib/thumb/v7-m/libc.a(lib_a-__atexit.o)
                                                  /home/hreis/gcc-arm-none-eabi-7-2017-q4-major/bin/../lib/gcc/arm-none-eabi/7.2.1/../../../../arm-none-eabi/lib/thumb/v7-m/libc.a(lib_a-atexit.o)
__register_frame_info                             /home/hreis/gcc-arm-none-eabi-7-2017-q4-major/bin/../lib/gcc/arm-none-eabi/7.2.1/thumb/v7-m/crtbegin.o
__retarget_lock_acquire                           /home/hreis/gcc-arm-none-eabi-7-2017-q4-major/bin/../lib/gcc/arm-none-eabi/7.2.1/../../../../arm-none-eabi/lib/thumb/v7-m/libc.a(lib_a-lock.o)
__retarget_lock_acquire_recursive                 /home/hreis/gcc-arm-none-eabi-7-2017-q4-major/bin/../lib/gcc/arm-none-eabi/7.2.1/../../../../arm-none-eabi/lib/thumb/v7-m/libc.a(lib_a-lock.o)
                                                  /home/hreis/gcc-arm-none-eabi-7-2017-q4-major/bin/../lib/gcc/arm-none-eabi/7.2.1/../../../../arm-none-eabi/lib/thumb/v7-m/libc.a(lib_a-__atexit.o)
                                                  /home/hreis/gcc-arm-none-eabi-7-2017-q4-major/bin/../lib/gcc/arm-none-eabi/7.2.1/../../../../arm-none-eabi/lib/thumb/v7-m/libc.a(lib_a-__call_atexit.o)
__retarget_lock_close                             /home/hreis/gcc-arm-none-eabi-7-2017-q4-major/bin/../lib/gcc/arm-none-eabi/7.2.1/../../../../arm-none-eabi/lib/thumb/v7-m/libc.a(lib_a-lock.o)
__retarget_lock_close_recursive                   /home/hreis/gcc-arm-none-eabi-7-2017-q4-major/bin/../lib/gcc/arm-none-eabi/7.2.1/../../../../arm-none-eabi/lib/thumb/v7-m/libc.a(lib_a-lock.o)
__retarget_lock_init                              /home/hreis/gcc-arm-none-eabi-7-2017-q4-major/bin/../lib/gcc/arm-none-eabi/7.2.1/../../../../arm-none-eabi/lib/thumb/v7-m/libc.a(lib_a-lock.o)
__retarget_lock_init_recursive                    /home/hreis/gcc-arm-none-eabi-7-2017-q4-major/bin/../lib/gcc/arm-none-eabi/7.2.1/../../../../arm-none-eabi/lib/thumb/v7-m/libc.a(lib_a-lock.o)
__retarget_lock_release                           /home/hreis/gcc-arm-none-eabi-7-2017-q4-major/bin/../lib/gcc/arm-none-eabi/7.2.1/../../../../arm-none-eabi/lib/thumb/v7-m/libc.a(lib_a-lock.o)
__retarget_lock_release_recursive                 /home/hreis/gcc-arm-none-eabi-7-2017-q4-major/bin/../lib/gcc/arm-none-eabi/7.2.1/../../../../arm-none-eabi/lib/thumb/v7-m/libc.a(lib_a-lock.o)
                                                  /home/hreis/gcc-arm-none-eabi-7-2017-q4-major/bin/../lib/gcc/arm-none-eabi/7.2.1/../../../../arm-none-eabi/lib/thumb/v7-m/libc.a(lib_a-__atexit.o)
                                                  /home/hreis/gcc-arm-none-eabi-7-2017-q4-major/bin/../lib/gcc/arm-none-eabi/7.2.1/../../../../arm-none-eabi/lib/thumb/v7-m/libc.a(lib_a-__call_atexit.o)
__retarget_lock_try_acquire                       /home/hreis/gcc-arm-none-eabi-7-2017-q4-major/bin/../lib/gcc/arm-none-eabi/7.2.1/../../../../arm-none-eabi/lib/thumb/v7-m/libc.a(lib_a-lock.o)
__retarget_lock_try_acquire_recursive             /home/hreis/gcc-arm-none-eabi-7-2017-q4-major/bin/../lib/gcc/arm-none-eabi/7.2.1/../../../../arm-none-eabi/lib/thumb/v7-m/libc.a(lib_a-lock.o)
__stack                                           /home/hreis/gcc-arm-none-eabi-7-2017-q4-major/bin/../lib/gcc/arm-none-eabi/7.2.1/../../../../arm-none-eabi/lib/thumb/v7-m/crt0.o
_ebss                                             startup.o
_edata                                            startup.o
_efastcode                                        startup.o
_exit                                             /home/hreis/gcc-arm-none-eabi-7-2017-q4-major/bin/../lib/gcc/arm-none-eabi/7.2.1/../../../../arm-none-eabi/lib/thumb/v7-m/libc.a(lib_a-exit.o)
_fini                                             /home/hreis/gcc-arm-none-eabi-7-2017-q4-major/bin/../lib/gcc/arm-none-eabi/7.2.1/thumb/v7-m/crti.o
                                                  /home/hreis/gcc-arm-none-eabi-7-2017-q4-major/bin/../lib/gcc/arm-none-eabi/7.2.1/../../../../arm-none-eabi/lib/thumb/v7-m/libc.a(lib_a-fini.o)
_global_impure_ptr                                /home/hreis/gcc-arm-none-eabi-7-2017-q4-major/bin/../lib/gcc/arm-none-eabi/7.2.1/../../../../arm-none-eabi/lib/thumb/v7-m/libc.a(lib_a-impure.o)
                                                  /home/hreis/gcc-arm-none-eabi-7-2017-q4-major/bin/../lib/gcc/arm-none-eabi/7.2.1/../../../../arm-none-eabi/lib/thumb/v7-m/libc.a(lib_a-__atexit.o)
                                                  /home/hreis/gcc-arm-none-eabi-7-2017-q4-major/bin/../lib/gcc/arm-none-eabi/7.2.1/../../../../arm-none-eabi/lib/thumb/v7-m/libc.a(lib_a-__call_atexit.o)
                                                  /home/hreis/gcc-arm-none-eabi-7-2017-q4-major/bin/../lib/gcc/arm-none-eabi/7.2.1/../../../../arm-none-eabi/lib/thumb/v7-m/libc.a(lib_a-exit.o)
_impure_ptr                                       /home/hreis/gcc-arm-none-eabi-7-2017-q4-major/bin/../lib/gcc/arm-none-eabi/7.2.1/../../../../arm-none-eabi/lib/thumb/v7-m/libc.a(lib_a-impure.o)
_init                                             /home/hreis/gcc-arm-none-eabi-7-2017-q4-major/bin/../lib/gcc/arm-none-eabi/7.2.1/thumb/v7-m/crti.o
                                                  /home/hreis/gcc-arm-none-eabi-7-2017-q4-major/bin/../lib/gcc/arm-none-eabi/7.2.1/../../../../arm-none-eabi/lib/thumb/v7-m/libc.a(lib_a-init.o)
_logline                                          debug.o
_mainCRTStartup                                   /home/hreis/gcc-arm-none-eabi-7-2017-q4-major/bin/../lib/gcc/arm-none-eabi/7.2.1/../../../../arm-none-eabi/lib/thumb/v7-m/crt0.o
_sbss                                             startup.o
_sdata                                            startup.o
_sfastcode                                        startup.o
_sidata                                           startup.o
_sifastcode                                       startup.o
_stack                                            startup.o
_start                                            /home/hreis/gcc-arm-none-eabi-7-2017-q4-major/bin/../lib/gcc/arm-none-eabi/7.2.1/../../../../arm-none-eabi/lib/thumb/v7-m/crt0.o
addHL                                             alu.o
                                                  decoder.o
alu                                               alu.o
                                                  decoder.o
atexit                                            /home/hreis/gcc-arm-none-eabi-7-2017-q4-major/bin/../lib/gcc/arm-none-eabi/7.2.1/../../../../arm-none-eabi/lib/thumb/v7-m/libc.a(lib_a-atexit.o)
                                                  /home/hreis/gcc-arm-none-eabi-7-2017-q4-major/bin/../lib/gcc/arm-none-eabi/7.2.1/../../../../arm-none-eabi/lib/thumb/v7-m/libc.a(lib_a-__call_atexit.o)
                                                  /home/hreis/gcc-arm-none-eabi-7-2017-q4-major/bin/../lib/gcc/arm-none-eabi/7.2.1/../../../../arm-none-eabi/lib/thumb/v7-m/crt0.o
bankSelect                                        cartridge.o
bgdataline                                        video.o
cartridgeRead                                     cartridge.o
cartridgeWrite                                    cartridge.o
                                                  dmgcpu.o
cycles                                            dmgcpu.o
                                                  decoder.o
                                                  video.o
                                                  alu.o
daa                                               alu.o
                                                  decoder.o
dec                                               alu.o
                                                  decoder.o
dec16                                             alu.o
                                                  decoder.o
decode                                            decoder.o
                                                  main.o
disk_initialize                                   mmc.o
                                                  pff.o
disk_readp                                        mmc.o
                                                  pff.o
disk_writep                                       mmc.o
dma                                               dmgcpu.o
drawChar                                          debug.o
drawCharDouble                                    display.o
drawCharInverted                                  display.o
drawCharSimple                                    display.o
drawCharTransparent                               display.o
drawString                                        debug.o
drive0                                            cartridge.o
dumpMemory                                        debug.o
dumpRegisters                                     debug.o
dumpSp                                            debug.o
exit                                              /home/hreis/gcc-arm-none-eabi-7-2017-q4-major/bin/../lib/gcc/arm-none-eabi/7.2.1/../../../../arm-none-eabi/lib/thumb/v7-m/libc.a(lib_a-exit.o)
                                                  /home/hreis/gcc-arm-none-eabi-7-2017-q4-major/bin/../lib/gcc/arm-none-eabi/7.2.1/../../../../arm-none-eabi/lib/thumb/v7-m/crt0.o
f_error                                           cartridge.o
fps                                               debug.o
frame                                             video.o
free                                              /home/hreis/gcc-arm-none-eabi-7-2017-q4-major/bin/../lib/gcc/arm-none-eabi/7.2.1/../../../../arm-none-eabi/lib/thumb/v7-m/libc.a(lib_a-__call_atexit.o)
fsInit                                            cartridge.o
g_pfnVectors                                      startup.o
halted                                            dmgcpu.o
                                                  decoder.o
hardware_init_hook                                /home/hreis/gcc-arm-none-eabi-7-2017-q4-major/bin/../lib/gcc/arm-none-eabi/7.2.1/../../../../arm-none-eabi/lib/thumb/v7-m/crt0.o
hram                                              dmgcpu.o
inc                                               alu.o
                                                  decoder.o
inc16                                             alu.o
                                                  decoder.o
initCpu                                           dmgcpu.o
                                                  main.o
interrupts                                        dmgcpu.o
                                                  main.o
iram                                              dmgcpu.o
joyPad                                            io.o
                                                  dmgcpu.o
jumpVector                                        dmgcpu.o
keyDown                                           blueboard.o
lcd_pal                                           video.o
loadRom                                           cartridge.o
                                                  main.o
loadRombank                                       cartridge.o
machine_cycles                                    dmgcpu.o
main                                              main.o
                                                  startup.o
                                                  /home/hreis/gcc-arm-none-eabi-7-2017-q4-major/bin/../lib/gcc/arm-none-eabi/7.2.1/../../../../arm-none-eabi/lib/thumb/v7-m/crt0.o
malloc                                            /home/hreis/gcc-arm-none-eabi-7-2017-q4-major/bin/../lib/gcc/arm-none-eabi/7.2.1/../../../../arm-none-eabi/lib/thumb/v7-m/libc.a(lib_a-__atexit.o)
memoryRead                                        dmgcpu.o
                                                  decoder.o
                                                  alu.o
                                                  debug.o
memoryRead16                                      dmgcpu.o
                                                  decoder.o
                                                  alu.o
memoryWrite                                       dmgcpu.o
                                                  decoder.o
                                                  alu.o
memoryWrite16                                     dmgcpu.o
                                                  decoder.o
                                                  alu.o
memset                                            /home/hreis/gcc-arm-none-eabi-7-2017-q4-major/bin/../lib/gcc/arm-none-eabi/7.2.1/../../../../arm-none-eabi/lib/thumb/v7-m/libc.a(lib_a-memset.o)
                                                  video.o
                                                  /home/hreis/gcc-arm-none-eabi-7-2017-q4-major/bin/../lib/gcc/arm-none-eabi/7.2.1/../../../../arm-none-eabi/lib/thumb/v7-m/crt0.o
nextLine                                          video.o
oam                                               dmgcpu.o
                                                  video.o
pf_lseek                                          pff.o
                                                  cartridge.o
pf_mount                                          pff.o
                                                  cartridge.o
pf_open                                           pff.o
                                                  cartridge.o
pf_opendir                                        pff.o
pf_read                                           pff.o
                                                  cartridge.o
pf_readdir                                        pff.o
pop                                               alu.o
                                                  decoder.o
printInt                                          debug.o
printVal                                          debug.o
push                                              alu.o
                                                  decoder.o
                                                  dmgcpu.o
putBgTileData                                     video.o
putSpriteData                                     video.o
putWindowTileData                                 video.o
readJoyPad                                        io.o
                                                  main.o
regs                                              dmgcpu.o
                                                  decoder.o
                                                  alu.o
                                                  debug.o
res                                               alu.o
                                                  decoder.o
rl                                                alu.o
                                                  decoder.o
rlc                                               alu.o
                                                  decoder.o
rr                                                alu.o
                                                  decoder.o
rrc                                               alu.o
                                                  decoder.o
run                                               main.o
scanKeys                                          blueboard.o
scanOAM                                           video.o
scanline                                          video.o
scanlinedata                                      video.o
set                                               alu.o
                                                  decoder.o
setTimerPrescaler                                 dmgcpu.o
sla                                               alu.o
                                                  decoder.o
software_init_hook                                /home/hreis/gcc-arm-none-eabi-7-2017-q4-major/bin/../lib/gcc/arm-none-eabi/7.2.1/../../../../arm-none-eabi/lib/thumb/v7-m/crt0.o
spriteline                                        video.o
sra                                               alu.o
                                                  decoder.o
srl                                               alu.o
                                                  decoder.o
stopped                                           dmgcpu.o
                                                  decoder.o
swap                                              alu.o
                                                  decoder.o
systicks                                          blueboard.o
timer                                             dmgcpu.o
                                                  main.o
timer_cycles                                      dmgcpu.o
timer_prescaler                                   dmgcpu.o
updateFps                                         debug.o
video                                             video.o
                                                  main.o
video_cycles                                      video.o
vram                                              dmgcpu.o
                                                  video.o
xftoa                                             display.o
xitoa                                             display.o
